Archive member included because of file (symbol)

/home/pcmonkey/altera/13.1/nios2eds/bin/gnu/H-i686-pc-linux-gnu/bin/../lib/gcc/nios2-elf/4.7.3/mno-hw-mul/libgcc.a(lib2-mul.o)
                              obj/default/umain.o (__mulsi3)
/home/pcmonkey/altera/13.1/nios2eds/bin/gnu/H-i686-pc-linux-gnu/bin/../lib/gcc/nios2-elf/4.7.3/../../../../../H-i686-pc-linux-gnu/nios2-elf/lib/mno-hw-mul/libc.a(lib_a-fclose.o)
                              obj/default/umain.o (fclose)
/home/pcmonkey/altera/13.1/nios2eds/bin/gnu/H-i686-pc-linux-gnu/bin/../lib/gcc/nios2-elf/4.7.3/../../../../../H-i686-pc-linux-gnu/nios2-elf/lib/mno-hw-mul/libc.a(lib_a-fflush.o)
                              /home/pcmonkey/altera/13.1/nios2eds/bin/gnu/H-i686-pc-linux-gnu/bin/../lib/gcc/nios2-elf/4.7.3/../../../../../H-i686-pc-linux-gnu/nios2-elf/lib/mno-hw-mul/libc.a(lib_a-fclose.o) (_fflush_r)
/home/pcmonkey/altera/13.1/nios2eds/bin/gnu/H-i686-pc-linux-gnu/bin/../lib/gcc/nios2-elf/4.7.3/../../../../../H-i686-pc-linux-gnu/nios2-elf/lib/mno-hw-mul/libc.a(lib_a-findfp.o)
                              /home/pcmonkey/altera/13.1/nios2eds/bin/gnu/H-i686-pc-linux-gnu/bin/../lib/gcc/nios2-elf/4.7.3/../../../../../H-i686-pc-linux-gnu/nios2-elf/lib/mno-hw-mul/libc.a(lib_a-fclose.o) (__sinit)
/home/pcmonkey/altera/13.1/nios2eds/bin/gnu/H-i686-pc-linux-gnu/bin/../lib/gcc/nios2-elf/4.7.3/../../../../../H-i686-pc-linux-gnu/nios2-elf/lib/mno-hw-mul/libc.a(lib_a-fopen.o)
                              obj/default/umain.o (fopen)
/home/pcmonkey/altera/13.1/nios2eds/bin/gnu/H-i686-pc-linux-gnu/bin/../lib/gcc/nios2-elf/4.7.3/../../../../../H-i686-pc-linux-gnu/nios2-elf/lib/mno-hw-mul/libc.a(lib_a-fprintf.o)
                              obj/default/umain.o (fprintf)
/home/pcmonkey/altera/13.1/nios2eds/bin/gnu/H-i686-pc-linux-gnu/bin/../lib/gcc/nios2-elf/4.7.3/../../../../../H-i686-pc-linux-gnu/nios2-elf/lib/mno-hw-mul/libc.a(lib_a-freer.o)
                              /home/pcmonkey/altera/13.1/nios2eds/bin/gnu/H-i686-pc-linux-gnu/bin/../lib/gcc/nios2-elf/4.7.3/../../../../../H-i686-pc-linux-gnu/nios2-elf/lib/mno-hw-mul/libc.a(lib_a-fclose.o) (_free_r)
/home/pcmonkey/altera/13.1/nios2eds/bin/gnu/H-i686-pc-linux-gnu/bin/../lib/gcc/nios2-elf/4.7.3/../../../../../H-i686-pc-linux-gnu/nios2-elf/lib/mno-hw-mul/libc.a(lib_a-fseek.o)
                              /home/pcmonkey/altera/13.1/nios2eds/bin/gnu/H-i686-pc-linux-gnu/bin/../lib/gcc/nios2-elf/4.7.3/../../../../../H-i686-pc-linux-gnu/nios2-elf/lib/mno-hw-mul/libc.a(lib_a-fopen.o) (_fseek_r)
/home/pcmonkey/altera/13.1/nios2eds/bin/gnu/H-i686-pc-linux-gnu/bin/../lib/gcc/nios2-elf/4.7.3/../../../../../H-i686-pc-linux-gnu/nios2-elf/lib/mno-hw-mul/libc.a(lib_a-fstatr.o)
                              /home/pcmonkey/altera/13.1/nios2eds/bin/gnu/H-i686-pc-linux-gnu/bin/../lib/gcc/nios2-elf/4.7.3/../../../../../H-i686-pc-linux-gnu/nios2-elf/lib/mno-hw-mul/libc.a(lib_a-fseek.o) (_fstat_r)
/home/pcmonkey/altera/13.1/nios2eds/bin/gnu/H-i686-pc-linux-gnu/bin/../lib/gcc/nios2-elf/4.7.3/../../../../../H-i686-pc-linux-gnu/nios2-elf/lib/mno-hw-mul/libc.a(lib_a-fwalk.o)
                              /home/pcmonkey/altera/13.1/nios2eds/bin/gnu/H-i686-pc-linux-gnu/bin/../lib/gcc/nios2-elf/4.7.3/../../../../../H-i686-pc-linux-gnu/nios2-elf/lib/mno-hw-mul/libc.a(lib_a-findfp.o) (_fwalk)
/home/pcmonkey/altera/13.1/nios2eds/bin/gnu/H-i686-pc-linux-gnu/bin/../lib/gcc/nios2-elf/4.7.3/../../../../../H-i686-pc-linux-gnu/nios2-elf/lib/mno-hw-mul/libc.a(lib_a-impure.o)
                              /home/pcmonkey/altera/13.1/nios2eds/bin/gnu/H-i686-pc-linux-gnu/bin/../lib/gcc/nios2-elf/4.7.3/../../../../../H-i686-pc-linux-gnu/nios2-elf/lib/mno-hw-mul/libc.a(lib_a-fflush.o) (_global_impure_ptr)
/home/pcmonkey/altera/13.1/nios2eds/bin/gnu/H-i686-pc-linux-gnu/bin/../lib/gcc/nios2-elf/4.7.3/../../../../../H-i686-pc-linux-gnu/nios2-elf/lib/mno-hw-mul/libc.a(lib_a-int_errno.o)
                              /home/pcmonkey/altera/13.1/nios2eds/bin/gnu/H-i686-pc-linux-gnu/bin/../lib/gcc/nios2-elf/4.7.3/../../../../../H-i686-pc-linux-gnu/nios2-elf/lib/mno-hw-mul/libc.a(lib_a-fstatr.o) (errno)
/home/pcmonkey/altera/13.1/nios2eds/bin/gnu/H-i686-pc-linux-gnu/bin/../lib/gcc/nios2-elf/4.7.3/../../../../../H-i686-pc-linux-gnu/nios2-elf/lib/mno-hw-mul/libc.a(lib_a-makebuf.o)
                              /home/pcmonkey/altera/13.1/nios2eds/bin/gnu/H-i686-pc-linux-gnu/bin/../lib/gcc/nios2-elf/4.7.3/../../../../../H-i686-pc-linux-gnu/nios2-elf/lib/mno-hw-mul/libc.a(lib_a-fseek.o) (__smakebuf_r)
/home/pcmonkey/altera/13.1/nios2eds/bin/gnu/H-i686-pc-linux-gnu/bin/../lib/gcc/nios2-elf/4.7.3/../../../../../H-i686-pc-linux-gnu/nios2-elf/lib/mno-hw-mul/libc.a(lib_a-mallocr.o)
                              /home/pcmonkey/altera/13.1/nios2eds/bin/gnu/H-i686-pc-linux-gnu/bin/../lib/gcc/nios2-elf/4.7.3/../../../../../H-i686-pc-linux-gnu/nios2-elf/lib/mno-hw-mul/libc.a(lib_a-findfp.o) (_malloc_r)
/home/pcmonkey/altera/13.1/nios2eds/bin/gnu/H-i686-pc-linux-gnu/bin/../lib/gcc/nios2-elf/4.7.3/../../../../../H-i686-pc-linux-gnu/nios2-elf/lib/mno-hw-mul/libc.a(lib_a-memset.o)
                              /home/pcmonkey/altera/13.1/nios2eds/bin/gnu/H-i686-pc-linux-gnu/bin/../lib/gcc/nios2-elf/4.7.3/../../../../../H-i686-pc-linux-gnu/nios2-elf/lib/mno-hw-mul/libc.a(lib_a-findfp.o) (memset)
/home/pcmonkey/altera/13.1/nios2eds/bin/gnu/H-i686-pc-linux-gnu/bin/../lib/gcc/nios2-elf/4.7.3/../../../../../H-i686-pc-linux-gnu/nios2-elf/lib/mno-hw-mul/libc.a(lib_a-openr.o)
                              /home/pcmonkey/altera/13.1/nios2eds/bin/gnu/H-i686-pc-linux-gnu/bin/../lib/gcc/nios2-elf/4.7.3/../../../../../H-i686-pc-linux-gnu/nios2-elf/lib/mno-hw-mul/libc.a(lib_a-fopen.o) (_open_r)
/home/pcmonkey/altera/13.1/nios2eds/bin/gnu/H-i686-pc-linux-gnu/bin/../lib/gcc/nios2-elf/4.7.3/../../../../../H-i686-pc-linux-gnu/nios2-elf/lib/mno-hw-mul/libc.a(lib_a-puts.o)
                              obj/default/umain.o (puts)
/home/pcmonkey/altera/13.1/nios2eds/bin/gnu/H-i686-pc-linux-gnu/bin/../lib/gcc/nios2-elf/4.7.3/../../../../../H-i686-pc-linux-gnu/nios2-elf/lib/mno-hw-mul/libc.a(lib_a-refill.o)
                              /home/pcmonkey/altera/13.1/nios2eds/bin/gnu/H-i686-pc-linux-gnu/bin/../lib/gcc/nios2-elf/4.7.3/../../../../../H-i686-pc-linux-gnu/nios2-elf/lib/mno-hw-mul/libc.a(lib_a-fseek.o) (__srefill_r)
/home/pcmonkey/altera/13.1/nios2eds/bin/gnu/H-i686-pc-linux-gnu/bin/../lib/gcc/nios2-elf/4.7.3/../../../../../H-i686-pc-linux-gnu/nios2-elf/lib/mno-hw-mul/libc.a(lib_a-sbrkr.o)
                              /home/pcmonkey/altera/13.1/nios2eds/bin/gnu/H-i686-pc-linux-gnu/bin/../lib/gcc/nios2-elf/4.7.3/../../../../../H-i686-pc-linux-gnu/nios2-elf/lib/mno-hw-mul/libc.a(lib_a-freer.o) (_sbrk_r)
/home/pcmonkey/altera/13.1/nios2eds/bin/gnu/H-i686-pc-linux-gnu/bin/../lib/gcc/nios2-elf/4.7.3/../../../../../H-i686-pc-linux-gnu/nios2-elf/lib/mno-hw-mul/libc.a(lib_a-stdio.o)
                              /home/pcmonkey/altera/13.1/nios2eds/bin/gnu/H-i686-pc-linux-gnu/bin/../lib/gcc/nios2-elf/4.7.3/../../../../../H-i686-pc-linux-gnu/nios2-elf/lib/mno-hw-mul/libc.a(lib_a-findfp.o) (__sread)
/home/pcmonkey/altera/13.1/nios2eds/bin/gnu/H-i686-pc-linux-gnu/bin/../lib/gcc/nios2-elf/4.7.3/../../../../../H-i686-pc-linux-gnu/nios2-elf/lib/mno-hw-mul/libc.a(lib_a-strlen.o)
                              /home/pcmonkey/altera/13.1/nios2eds/bin/gnu/H-i686-pc-linux-gnu/bin/../lib/gcc/nios2-elf/4.7.3/../../../../../H-i686-pc-linux-gnu/nios2-elf/lib/mno-hw-mul/libc.a(lib_a-puts.o) (strlen)
/home/pcmonkey/altera/13.1/nios2eds/bin/gnu/H-i686-pc-linux-gnu/bin/../lib/gcc/nios2-elf/4.7.3/../../../../../H-i686-pc-linux-gnu/nios2-elf/lib/mno-hw-mul/libc.a(lib_a-vfprintf.o)
                              /home/pcmonkey/altera/13.1/nios2eds/bin/gnu/H-i686-pc-linux-gnu/bin/../lib/gcc/nios2-elf/4.7.3/../../../../../H-i686-pc-linux-gnu/nios2-elf/lib/mno-hw-mul/libc.a(lib_a-fprintf.o) (__vfprintf_internal)
/home/pcmonkey/altera/13.1/nios2eds/bin/gnu/H-i686-pc-linux-gnu/bin/../lib/gcc/nios2-elf/4.7.3/../../../../../H-i686-pc-linux-gnu/nios2-elf/lib/mno-hw-mul/libc.a(lib_a-writer.o)
                              /home/pcmonkey/altera/13.1/nios2eds/bin/gnu/H-i686-pc-linux-gnu/bin/../lib/gcc/nios2-elf/4.7.3/../../../../../H-i686-pc-linux-gnu/nios2-elf/lib/mno-hw-mul/libc.a(lib_a-stdio.o) (_write_r)
/home/pcmonkey/altera/13.1/nios2eds/bin/gnu/H-i686-pc-linux-gnu/bin/../lib/gcc/nios2-elf/4.7.3/../../../../../H-i686-pc-linux-gnu/nios2-elf/lib/mno-hw-mul/libc.a(lib_a-wsetup.o)
                              /home/pcmonkey/altera/13.1/nios2eds/bin/gnu/H-i686-pc-linux-gnu/bin/../lib/gcc/nios2-elf/4.7.3/../../../../../H-i686-pc-linux-gnu/nios2-elf/lib/mno-hw-mul/libc.a(lib_a-vfprintf.o) (__swsetup_r)
/home/pcmonkey/altera/13.1/nios2eds/bin/gnu/H-i686-pc-linux-gnu/bin/../lib/gcc/nios2-elf/4.7.3/../../../../../H-i686-pc-linux-gnu/nios2-elf/lib/mno-hw-mul/libc.a(lib_a-closer.o)
                              /home/pcmonkey/altera/13.1/nios2eds/bin/gnu/H-i686-pc-linux-gnu/bin/../lib/gcc/nios2-elf/4.7.3/../../../../../H-i686-pc-linux-gnu/nios2-elf/lib/mno-hw-mul/libc.a(lib_a-stdio.o) (_close_r)
/home/pcmonkey/altera/13.1/nios2eds/bin/gnu/H-i686-pc-linux-gnu/bin/../lib/gcc/nios2-elf/4.7.3/../../../../../H-i686-pc-linux-gnu/nios2-elf/lib/mno-hw-mul/libc.a(lib_a-dtoa.o)
                              /home/pcmonkey/altera/13.1/nios2eds/bin/gnu/H-i686-pc-linux-gnu/bin/../lib/gcc/nios2-elf/4.7.3/../../../../../H-i686-pc-linux-gnu/nios2-elf/lib/mno-hw-mul/libc.a(lib_a-vfprintf.o) (_dtoa_r)
/home/pcmonkey/altera/13.1/nios2eds/bin/gnu/H-i686-pc-linux-gnu/bin/../lib/gcc/nios2-elf/4.7.3/../../../../../H-i686-pc-linux-gnu/nios2-elf/lib/mno-hw-mul/libc.a(lib_a-flags.o)
                              /home/pcmonkey/altera/13.1/nios2eds/bin/gnu/H-i686-pc-linux-gnu/bin/../lib/gcc/nios2-elf/4.7.3/../../../../../H-i686-pc-linux-gnu/nios2-elf/lib/mno-hw-mul/libc.a(lib_a-fopen.o) (__sflags)
/home/pcmonkey/altera/13.1/nios2eds/bin/gnu/H-i686-pc-linux-gnu/bin/../lib/gcc/nios2-elf/4.7.3/../../../../../H-i686-pc-linux-gnu/nios2-elf/lib/mno-hw-mul/libc.a(lib_a-fvwrite.o)
                              /home/pcmonkey/altera/13.1/nios2eds/bin/gnu/H-i686-pc-linux-gnu/bin/../lib/gcc/nios2-elf/4.7.3/../../../../../H-i686-pc-linux-gnu/nios2-elf/lib/mno-hw-mul/libc.a(lib_a-puts.o) (__sfvwrite_r)
/home/pcmonkey/altera/13.1/nios2eds/bin/gnu/H-i686-pc-linux-gnu/bin/../lib/gcc/nios2-elf/4.7.3/../../../../../H-i686-pc-linux-gnu/nios2-elf/lib/mno-hw-mul/libc.a(lib_a-isattyr.o)
                              /home/pcmonkey/altera/13.1/nios2eds/bin/gnu/H-i686-pc-linux-gnu/bin/../lib/gcc/nios2-elf/4.7.3/../../../../../H-i686-pc-linux-gnu/nios2-elf/lib/mno-hw-mul/libc.a(lib_a-makebuf.o) (_isatty_r)
/home/pcmonkey/altera/13.1/nios2eds/bin/gnu/H-i686-pc-linux-gnu/bin/../lib/gcc/nios2-elf/4.7.3/../../../../../H-i686-pc-linux-gnu/nios2-elf/lib/mno-hw-mul/libc.a(lib_a-locale.o)
                              /home/pcmonkey/altera/13.1/nios2eds/bin/gnu/H-i686-pc-linux-gnu/bin/../lib/gcc/nios2-elf/4.7.3/../../../../../H-i686-pc-linux-gnu/nios2-elf/lib/mno-hw-mul/libc.a(lib_a-vfprintf.o) (_localeconv_r)
/home/pcmonkey/altera/13.1/nios2eds/bin/gnu/H-i686-pc-linux-gnu/bin/../lib/gcc/nios2-elf/4.7.3/../../../../../H-i686-pc-linux-gnu/nios2-elf/lib/mno-hw-mul/libc.a(lib_a-lseekr.o)
                              /home/pcmonkey/altera/13.1/nios2eds/bin/gnu/H-i686-pc-linux-gnu/bin/../lib/gcc/nios2-elf/4.7.3/../../../../../H-i686-pc-linux-gnu/nios2-elf/lib/mno-hw-mul/libc.a(lib_a-stdio.o) (_lseek_r)
/home/pcmonkey/altera/13.1/nios2eds/bin/gnu/H-i686-pc-linux-gnu/bin/../lib/gcc/nios2-elf/4.7.3/../../../../../H-i686-pc-linux-gnu/nios2-elf/lib/mno-hw-mul/libc.a(lib_a-memchr.o)
                              /home/pcmonkey/altera/13.1/nios2eds/bin/gnu/H-i686-pc-linux-gnu/bin/../lib/gcc/nios2-elf/4.7.3/../../../../../H-i686-pc-linux-gnu/nios2-elf/lib/mno-hw-mul/libc.a(lib_a-vfprintf.o) (memchr)
/home/pcmonkey/altera/13.1/nios2eds/bin/gnu/H-i686-pc-linux-gnu/bin/../lib/gcc/nios2-elf/4.7.3/../../../../../H-i686-pc-linux-gnu/nios2-elf/lib/mno-hw-mul/libc.a(lib_a-memcpy.o)
                              /home/pcmonkey/altera/13.1/nios2eds/bin/gnu/H-i686-pc-linux-gnu/bin/../lib/gcc/nios2-elf/4.7.3/../../../../../H-i686-pc-linux-gnu/nios2-elf/lib/mno-hw-mul/libc.a(lib_a-dtoa.o) (memcpy)
/home/pcmonkey/altera/13.1/nios2eds/bin/gnu/H-i686-pc-linux-gnu/bin/../lib/gcc/nios2-elf/4.7.3/../../../../../H-i686-pc-linux-gnu/nios2-elf/lib/mno-hw-mul/libc.a(lib_a-memmove.o)
                              /home/pcmonkey/altera/13.1/nios2eds/bin/gnu/H-i686-pc-linux-gnu/bin/../lib/gcc/nios2-elf/4.7.3/../../../../../H-i686-pc-linux-gnu/nios2-elf/lib/mno-hw-mul/libc.a(lib_a-fvwrite.o) (memmove)
/home/pcmonkey/altera/13.1/nios2eds/bin/gnu/H-i686-pc-linux-gnu/bin/../lib/gcc/nios2-elf/4.7.3/../../../../../H-i686-pc-linux-gnu/nios2-elf/lib/mno-hw-mul/libc.a(lib_a-mprec.o)
                              /home/pcmonkey/altera/13.1/nios2eds/bin/gnu/H-i686-pc-linux-gnu/bin/../lib/gcc/nios2-elf/4.7.3/../../../../../H-i686-pc-linux-gnu/nios2-elf/lib/mno-hw-mul/libc.a(lib_a-dtoa.o) (_Balloc)
/home/pcmonkey/altera/13.1/nios2eds/bin/gnu/H-i686-pc-linux-gnu/bin/../lib/gcc/nios2-elf/4.7.3/../../../../../H-i686-pc-linux-gnu/nios2-elf/lib/mno-hw-mul/libc.a(lib_a-readr.o)
                              /home/pcmonkey/altera/13.1/nios2eds/bin/gnu/H-i686-pc-linux-gnu/bin/../lib/gcc/nios2-elf/4.7.3/../../../../../H-i686-pc-linux-gnu/nios2-elf/lib/mno-hw-mul/libc.a(lib_a-stdio.o) (_read_r)
/home/pcmonkey/altera/13.1/nios2eds/bin/gnu/H-i686-pc-linux-gnu/bin/../lib/gcc/nios2-elf/4.7.3/../../../../../H-i686-pc-linux-gnu/nios2-elf/lib/mno-hw-mul/libc.a(lib_a-reallocr.o)
                              /home/pcmonkey/altera/13.1/nios2eds/bin/gnu/H-i686-pc-linux-gnu/bin/../lib/gcc/nios2-elf/4.7.3/../../../../../H-i686-pc-linux-gnu/nios2-elf/lib/mno-hw-mul/libc.a(lib_a-fvwrite.o) (_realloc_r)
/home/pcmonkey/altera/13.1/nios2eds/bin/gnu/H-i686-pc-linux-gnu/bin/../lib/gcc/nios2-elf/4.7.3/../../../../../H-i686-pc-linux-gnu/nios2-elf/lib/mno-hw-mul/libc.a(lib_a-s_isinfd.o)
                              /home/pcmonkey/altera/13.1/nios2eds/bin/gnu/H-i686-pc-linux-gnu/bin/../lib/gcc/nios2-elf/4.7.3/../../../../../H-i686-pc-linux-gnu/nios2-elf/lib/mno-hw-mul/libc.a(lib_a-vfprintf.o) (__isinfd)
/home/pcmonkey/altera/13.1/nios2eds/bin/gnu/H-i686-pc-linux-gnu/bin/../lib/gcc/nios2-elf/4.7.3/../../../../../H-i686-pc-linux-gnu/nios2-elf/lib/mno-hw-mul/libc.a(lib_a-s_isnand.o)
                              /home/pcmonkey/altera/13.1/nios2eds/bin/gnu/H-i686-pc-linux-gnu/bin/../lib/gcc/nios2-elf/4.7.3/../../../../../H-i686-pc-linux-gnu/nios2-elf/lib/mno-hw-mul/libc.a(lib_a-vfprintf.o) (__isnand)
/home/pcmonkey/altera/13.1/nios2eds/bin/gnu/H-i686-pc-linux-gnu/bin/../lib/gcc/nios2-elf/4.7.3/../../../../../H-i686-pc-linux-gnu/nios2-elf/lib/mno-hw-mul/libc.a(lib_a-strcmp.o)
                              /home/pcmonkey/altera/13.1/nios2eds/bin/gnu/H-i686-pc-linux-gnu/bin/../lib/gcc/nios2-elf/4.7.3/../../../../../H-i686-pc-linux-gnu/nios2-elf/lib/mno-hw-mul/libc.a(lib_a-locale.o) (strcmp)
/home/pcmonkey/altera/13.1/nios2eds/bin/gnu/H-i686-pc-linux-gnu/bin/../lib/gcc/nios2-elf/4.7.3/../../../../../H-i686-pc-linux-gnu/nios2-elf/lib/mno-hw-mul/libc.a(lib_a-callocr.o)
                              /home/pcmonkey/altera/13.1/nios2eds/bin/gnu/H-i686-pc-linux-gnu/bin/../lib/gcc/nios2-elf/4.7.3/../../../../../H-i686-pc-linux-gnu/nios2-elf/lib/mno-hw-mul/libc.a(lib_a-mprec.o) (_calloc_r)
/home/pcmonkey/altera/13.1/nios2eds/bin/gnu/H-i686-pc-linux-gnu/bin/../lib/gcc/nios2-elf/4.7.3/mno-hw-mul/libgcc.a(_udivdi3.o)
                              /home/pcmonkey/altera/13.1/nios2eds/bin/gnu/H-i686-pc-linux-gnu/bin/../lib/gcc/nios2-elf/4.7.3/../../../../../H-i686-pc-linux-gnu/nios2-elf/lib/mno-hw-mul/libc.a(lib_a-vfprintf.o) (__udivdi3)
/home/pcmonkey/altera/13.1/nios2eds/bin/gnu/H-i686-pc-linux-gnu/bin/../lib/gcc/nios2-elf/4.7.3/mno-hw-mul/libgcc.a(_umoddi3.o)
                              /home/pcmonkey/altera/13.1/nios2eds/bin/gnu/H-i686-pc-linux-gnu/bin/../lib/gcc/nios2-elf/4.7.3/../../../../../H-i686-pc-linux-gnu/nios2-elf/lib/mno-hw-mul/libc.a(lib_a-vfprintf.o) (__umoddi3)
/home/pcmonkey/altera/13.1/nios2eds/bin/gnu/H-i686-pc-linux-gnu/bin/../lib/gcc/nios2-elf/4.7.3/mno-hw-mul/libgcc.a(_addsub_df.o)
                              /home/pcmonkey/altera/13.1/nios2eds/bin/gnu/H-i686-pc-linux-gnu/bin/../lib/gcc/nios2-elf/4.7.3/../../../../../H-i686-pc-linux-gnu/nios2-elf/lib/mno-hw-mul/libc.a(lib_a-dtoa.o) (__adddf3)
/home/pcmonkey/altera/13.1/nios2eds/bin/gnu/H-i686-pc-linux-gnu/bin/../lib/gcc/nios2-elf/4.7.3/mno-hw-mul/libgcc.a(_mul_df.o)
                              /home/pcmonkey/altera/13.1/nios2eds/bin/gnu/H-i686-pc-linux-gnu/bin/../lib/gcc/nios2-elf/4.7.3/../../../../../H-i686-pc-linux-gnu/nios2-elf/lib/mno-hw-mul/libc.a(lib_a-dtoa.o) (__muldf3)
/home/pcmonkey/altera/13.1/nios2eds/bin/gnu/H-i686-pc-linux-gnu/bin/../lib/gcc/nios2-elf/4.7.3/mno-hw-mul/libgcc.a(_div_df.o)
                              /home/pcmonkey/altera/13.1/nios2eds/bin/gnu/H-i686-pc-linux-gnu/bin/../lib/gcc/nios2-elf/4.7.3/../../../../../H-i686-pc-linux-gnu/nios2-elf/lib/mno-hw-mul/libc.a(lib_a-dtoa.o) (__divdf3)
/home/pcmonkey/altera/13.1/nios2eds/bin/gnu/H-i686-pc-linux-gnu/bin/../lib/gcc/nios2-elf/4.7.3/mno-hw-mul/libgcc.a(_eq_df.o)
                              /home/pcmonkey/altera/13.1/nios2eds/bin/gnu/H-i686-pc-linux-gnu/bin/../lib/gcc/nios2-elf/4.7.3/../../../../../H-i686-pc-linux-gnu/nios2-elf/lib/mno-hw-mul/libc.a(lib_a-vfprintf.o) (__eqdf2)
/home/pcmonkey/altera/13.1/nios2eds/bin/gnu/H-i686-pc-linux-gnu/bin/../lib/gcc/nios2-elf/4.7.3/mno-hw-mul/libgcc.a(_ne_df.o)
                              /home/pcmonkey/altera/13.1/nios2eds/bin/gnu/H-i686-pc-linux-gnu/bin/../lib/gcc/nios2-elf/4.7.3/../../../../../H-i686-pc-linux-gnu/nios2-elf/lib/mno-hw-mul/libc.a(lib_a-vfprintf.o) (__nedf2)
/home/pcmonkey/altera/13.1/nios2eds/bin/gnu/H-i686-pc-linux-gnu/bin/../lib/gcc/nios2-elf/4.7.3/mno-hw-mul/libgcc.a(_gt_df.o)
                              /home/pcmonkey/altera/13.1/nios2eds/bin/gnu/H-i686-pc-linux-gnu/bin/../lib/gcc/nios2-elf/4.7.3/../../../../../H-i686-pc-linux-gnu/nios2-elf/lib/mno-hw-mul/libc.a(lib_a-dtoa.o) (__gtdf2)
/home/pcmonkey/altera/13.1/nios2eds/bin/gnu/H-i686-pc-linux-gnu/bin/../lib/gcc/nios2-elf/4.7.3/mno-hw-mul/libgcc.a(_ge_df.o)
                              /home/pcmonkey/altera/13.1/nios2eds/bin/gnu/H-i686-pc-linux-gnu/bin/../lib/gcc/nios2-elf/4.7.3/../../../../../H-i686-pc-linux-gnu/nios2-elf/lib/mno-hw-mul/libc.a(lib_a-dtoa.o) (__gedf2)
/home/pcmonkey/altera/13.1/nios2eds/bin/gnu/H-i686-pc-linux-gnu/bin/../lib/gcc/nios2-elf/4.7.3/mno-hw-mul/libgcc.a(_lt_df.o)
                              /home/pcmonkey/altera/13.1/nios2eds/bin/gnu/H-i686-pc-linux-gnu/bin/../lib/gcc/nios2-elf/4.7.3/../../../../../H-i686-pc-linux-gnu/nios2-elf/lib/mno-hw-mul/libc.a(lib_a-vfprintf.o) (__ltdf2)
/home/pcmonkey/altera/13.1/nios2eds/bin/gnu/H-i686-pc-linux-gnu/bin/../lib/gcc/nios2-elf/4.7.3/mno-hw-mul/libgcc.a(_si_to_df.o)
                              /home/pcmonkey/altera/13.1/nios2eds/bin/gnu/H-i686-pc-linux-gnu/bin/../lib/gcc/nios2-elf/4.7.3/../../../../../H-i686-pc-linux-gnu/nios2-elf/lib/mno-hw-mul/libc.a(lib_a-dtoa.o) (__floatsidf)
/home/pcmonkey/altera/13.1/nios2eds/bin/gnu/H-i686-pc-linux-gnu/bin/../lib/gcc/nios2-elf/4.7.3/mno-hw-mul/libgcc.a(_df_to_si.o)
                              /home/pcmonkey/altera/13.1/nios2eds/bin/gnu/H-i686-pc-linux-gnu/bin/../lib/gcc/nios2-elf/4.7.3/../../../../../H-i686-pc-linux-gnu/nios2-elf/lib/mno-hw-mul/libc.a(lib_a-dtoa.o) (__fixdfsi)
/home/pcmonkey/altera/13.1/nios2eds/bin/gnu/H-i686-pc-linux-gnu/bin/../lib/gcc/nios2-elf/4.7.3/mno-hw-mul/libgcc.a(_thenan_df.o)
                              /home/pcmonkey/altera/13.1/nios2eds/bin/gnu/H-i686-pc-linux-gnu/bin/../lib/gcc/nios2-elf/4.7.3/mno-hw-mul/libgcc.a(_addsub_df.o) (__thenan_df)
/home/pcmonkey/altera/13.1/nios2eds/bin/gnu/H-i686-pc-linux-gnu/bin/../lib/gcc/nios2-elf/4.7.3/mno-hw-mul/libgcc.a(_usi_to_df.o)
                              /home/pcmonkey/altera/13.1/nios2eds/bin/gnu/H-i686-pc-linux-gnu/bin/../lib/gcc/nios2-elf/4.7.3/../../../../../H-i686-pc-linux-gnu/nios2-elf/lib/mno-hw-mul/libc.a(lib_a-dtoa.o) (__floatunsidf)
/home/pcmonkey/altera/13.1/nios2eds/bin/gnu/H-i686-pc-linux-gnu/bin/../lib/gcc/nios2-elf/4.7.3/mno-hw-mul/libgcc.a(lib2-divmod.o)
                              /home/pcmonkey/altera/13.1/nios2eds/bin/gnu/H-i686-pc-linux-gnu/bin/../lib/gcc/nios2-elf/4.7.3/../../../../../H-i686-pc-linux-gnu/nios2-elf/lib/mno-hw-mul/libc.a(lib_a-vfprintf.o) (__divsi3)
/home/pcmonkey/altera/13.1/nios2eds/bin/gnu/H-i686-pc-linux-gnu/bin/../lib/gcc/nios2-elf/4.7.3/mno-hw-mul/libgcc.a(_muldi3.o)
                              /home/pcmonkey/altera/13.1/nios2eds/bin/gnu/H-i686-pc-linux-gnu/bin/../lib/gcc/nios2-elf/4.7.3/mno-hw-mul/libgcc.a(_mul_df.o) (__muldi3)
/home/pcmonkey/altera/13.1/nios2eds/bin/gnu/H-i686-pc-linux-gnu/bin/../lib/gcc/nios2-elf/4.7.3/mno-hw-mul/libgcc.a(_clz.o)
                              /home/pcmonkey/altera/13.1/nios2eds/bin/gnu/H-i686-pc-linux-gnu/bin/../lib/gcc/nios2-elf/4.7.3/mno-hw-mul/libgcc.a(_udivdi3.o) (__clz_tab)
/home/pcmonkey/altera/13.1/nios2eds/bin/gnu/H-i686-pc-linux-gnu/bin/../lib/gcc/nios2-elf/4.7.3/mno-hw-mul/libgcc.a(_clzsi2.o)
                              /home/pcmonkey/altera/13.1/nios2eds/bin/gnu/H-i686-pc-linux-gnu/bin/../lib/gcc/nios2-elf/4.7.3/mno-hw-mul/libgcc.a(_si_to_df.o) (__clzsi2)
/home/pcmonkey/altera/13.1/nios2eds/bin/gnu/H-i686-pc-linux-gnu/bin/../lib/gcc/nios2-elf/4.7.3/mno-hw-mul/libgcc.a(_pack_df.o)
                              /home/pcmonkey/altera/13.1/nios2eds/bin/gnu/H-i686-pc-linux-gnu/bin/../lib/gcc/nios2-elf/4.7.3/mno-hw-mul/libgcc.a(_addsub_df.o) (__pack_d)
/home/pcmonkey/altera/13.1/nios2eds/bin/gnu/H-i686-pc-linux-gnu/bin/../lib/gcc/nios2-elf/4.7.3/mno-hw-mul/libgcc.a(_unpack_df.o)
                              /home/pcmonkey/altera/13.1/nios2eds/bin/gnu/H-i686-pc-linux-gnu/bin/../lib/gcc/nios2-elf/4.7.3/mno-hw-mul/libgcc.a(_addsub_df.o) (__unpack_d)
/home/pcmonkey/altera/13.1/nios2eds/bin/gnu/H-i686-pc-linux-gnu/bin/../lib/gcc/nios2-elf/4.7.3/mno-hw-mul/libgcc.a(_fpcmp_parts_df.o)
                              /home/pcmonkey/altera/13.1/nios2eds/bin/gnu/H-i686-pc-linux-gnu/bin/../lib/gcc/nios2-elf/4.7.3/mno-hw-mul/libgcc.a(_eq_df.o) (__fpcmp_parts_d)
/home/pcmonkey/altera/13.1/nios2eds/bin/gnu/H-i686-pc-linux-gnu/bin/../lib/gcc/nios2-elf/4.7.3/mno-hw-mul/libgcc.a(_lshrdi3.o)
                              /home/pcmonkey/altera/13.1/nios2eds/bin/gnu/H-i686-pc-linux-gnu/bin/../lib/gcc/nios2-elf/4.7.3/mno-hw-mul/libgcc.a(_pack_df.o) (__lshrdi3)
/home/pcmonkey/altera/13.1/nios2eds/bin/gnu/H-i686-pc-linux-gnu/bin/../lib/gcc/nios2-elf/4.7.3/mno-hw-mul/libgcc.a(_ashldi3.o)
                              /home/pcmonkey/altera/13.1/nios2eds/bin/gnu/H-i686-pc-linux-gnu/bin/../lib/gcc/nios2-elf/4.7.3/mno-hw-mul/libgcc.a(_pack_df.o) (__ashldi3)
../final_sf_bsp//libhal_bsp.a(alt_close.o)
                              /home/pcmonkey/altera/13.1/nios2eds/bin/gnu/H-i686-pc-linux-gnu/bin/../lib/gcc/nios2-elf/4.7.3/../../../../../H-i686-pc-linux-gnu/nios2-elf/lib/mno-hw-mul/libc.a(lib_a-closer.o) (close)
../final_sf_bsp//libhal_bsp.a(alt_dev.o)
                              ../final_sf_bsp//libhal_bsp.a(alt_close.o) (alt_fd_list)
../final_sf_bsp//libhal_bsp.a(alt_errno.o)
                              ../final_sf_bsp//libhal_bsp.a(alt_close.o) (alt_errno)
../final_sf_bsp//libhal_bsp.a(alt_fstat.o)
                              /home/pcmonkey/altera/13.1/nios2eds/bin/gnu/H-i686-pc-linux-gnu/bin/../lib/gcc/nios2-elf/4.7.3/../../../../../H-i686-pc-linux-gnu/nios2-elf/lib/mno-hw-mul/libc.a(lib_a-fstatr.o) (fstat)
../final_sf_bsp//libhal_bsp.a(alt_isatty.o)
                              /home/pcmonkey/altera/13.1/nios2eds/bin/gnu/H-i686-pc-linux-gnu/bin/../lib/gcc/nios2-elf/4.7.3/../../../../../H-i686-pc-linux-gnu/nios2-elf/lib/mno-hw-mul/libc.a(lib_a-isattyr.o) (isatty)
../final_sf_bsp//libhal_bsp.a(alt_load.o)
                              ../final_sf_bsp//obj/HAL/src/crt0.o (alt_load)
../final_sf_bsp//libhal_bsp.a(alt_lseek.o)
                              /home/pcmonkey/altera/13.1/nios2eds/bin/gnu/H-i686-pc-linux-gnu/bin/../lib/gcc/nios2-elf/4.7.3/../../../../../H-i686-pc-linux-gnu/nios2-elf/lib/mno-hw-mul/libc.a(lib_a-lseekr.o) (lseek)
../final_sf_bsp//libhal_bsp.a(alt_main.o)
                              ../final_sf_bsp//obj/HAL/src/crt0.o (alt_main)
../final_sf_bsp//libhal_bsp.a(alt_malloc_lock.o)
                              /home/pcmonkey/altera/13.1/nios2eds/bin/gnu/H-i686-pc-linux-gnu/bin/../lib/gcc/nios2-elf/4.7.3/../../../../../H-i686-pc-linux-gnu/nios2-elf/lib/mno-hw-mul/libc.a(lib_a-freer.o) (__malloc_lock)
../final_sf_bsp//libhal_bsp.a(alt_open.o)
                              /home/pcmonkey/altera/13.1/nios2eds/bin/gnu/H-i686-pc-linux-gnu/bin/../lib/gcc/nios2-elf/4.7.3/../../../../../H-i686-pc-linux-gnu/nios2-elf/lib/mno-hw-mul/libc.a(lib_a-openr.o) (open)
../final_sf_bsp//libhal_bsp.a(alt_read.o)
                              /home/pcmonkey/altera/13.1/nios2eds/bin/gnu/H-i686-pc-linux-gnu/bin/../lib/gcc/nios2-elf/4.7.3/../../../../../H-i686-pc-linux-gnu/nios2-elf/lib/mno-hw-mul/libc.a(lib_a-readr.o) (read)
../final_sf_bsp//libhal_bsp.a(alt_release_fd.o)
                              ../final_sf_bsp//libhal_bsp.a(alt_close.o) (alt_release_fd)
../final_sf_bsp//libhal_bsp.a(alt_sbrk.o)
                              /home/pcmonkey/altera/13.1/nios2eds/bin/gnu/H-i686-pc-linux-gnu/bin/../lib/gcc/nios2-elf/4.7.3/../../../../../H-i686-pc-linux-gnu/nios2-elf/lib/mno-hw-mul/libc.a(lib_a-sbrkr.o) (sbrk)
../final_sf_bsp//libhal_bsp.a(alt_usleep.o)
                              obj/default/umain.o (usleep)
../final_sf_bsp//libhal_bsp.a(alt_write.o)
                              /home/pcmonkey/altera/13.1/nios2eds/bin/gnu/H-i686-pc-linux-gnu/bin/../lib/gcc/nios2-elf/4.7.3/../../../../../H-i686-pc-linux-gnu/nios2-elf/lib/mno-hw-mul/libc.a(lib_a-writer.o) (write)
../final_sf_bsp//libhal_bsp.a(alt_sys_init.o)
                              ../final_sf_bsp//libhal_bsp.a(alt_main.o) (alt_irq_init)
../final_sf_bsp//libhal_bsp.a(altera_avalon_jtag_uart_fd.o)
                              ../final_sf_bsp//libhal_bsp.a(alt_sys_init.o) (altera_avalon_jtag_uart_read_fd)
../final_sf_bsp//libhal_bsp.a(altera_avalon_jtag_uart_read.o)
                              ../final_sf_bsp//libhal_bsp.a(altera_avalon_jtag_uart_fd.o) (altera_avalon_jtag_uart_read)
../final_sf_bsp//libhal_bsp.a(altera_avalon_jtag_uart_write.o)
                              ../final_sf_bsp//libhal_bsp.a(altera_avalon_jtag_uart_fd.o) (altera_avalon_jtag_uart_write)
../final_sf_bsp//libhal_bsp.a(altera_avalon_timer_sc.o)
                              ../final_sf_bsp//libhal_bsp.a(alt_sys_init.o) (alt_avalon_timer_sc_init)
../final_sf_bsp//libhal_bsp.a(altera_avalon_uart_fd.o)
                              ../final_sf_bsp//libhal_bsp.a(alt_sys_init.o) (altera_avalon_uart_read_fd)
../final_sf_bsp//libhal_bsp.a(altera_avalon_uart_read.o)
                              ../final_sf_bsp//libhal_bsp.a(altera_avalon_uart_fd.o) (altera_avalon_uart_read)
../final_sf_bsp//libhal_bsp.a(altera_avalon_uart_write.o)
                              ../final_sf_bsp//libhal_bsp.a(altera_avalon_uart_fd.o) (altera_avalon_uart_write)
../final_sf_bsp//libhal_bsp.a(altera_hostfs.o)
                              ../final_sf_bsp//libhal_bsp.a(alt_sys_init.o) (alt_hostfs_open)
../final_sf_bsp//libhal_bsp.a(alt_busy_sleep.o)
                              ../final_sf_bsp//libhal_bsp.a(alt_usleep.o) (alt_busy_sleep)
../final_sf_bsp//libhal_bsp.a(alt_dcache_flush_all.o)
                              ../final_sf_bsp//libhal_bsp.a(alt_load.o) (alt_dcache_flush_all)
../final_sf_bsp//libhal_bsp.a(alt_dev_llist_insert.o)
                              ../final_sf_bsp//libhal_bsp.a(alt_sys_init.o) (alt_dev_llist_insert)
../final_sf_bsp//libhal_bsp.a(alt_find_dev.o)
                              ../final_sf_bsp//libhal_bsp.a(alt_open.o) (alt_find_dev)
../final_sf_bsp//libhal_bsp.a(alt_find_file.o)
                              ../final_sf_bsp//libhal_bsp.a(alt_open.o) (alt_find_file)
../final_sf_bsp//libhal_bsp.a(alt_fs_reg.o)
                              ../final_sf_bsp//libhal_bsp.a(alt_sys_init.o) (alt_fs_reg)
../final_sf_bsp//libhal_bsp.a(alt_get_fd.o)
                              ../final_sf_bsp//libhal_bsp.a(alt_open.o) (alt_get_fd)
../final_sf_bsp//libhal_bsp.a(alt_icache_flush_all.o)
                              ../final_sf_bsp//libhal_bsp.a(alt_load.o) (alt_icache_flush_all)
../final_sf_bsp//libhal_bsp.a(alt_iic.o)
                              ../final_sf_bsp//libhal_bsp.a(altera_avalon_timer_sc.o) (alt_ic_isr_register)
../final_sf_bsp//libhal_bsp.a(alt_iic_isr_register.o)
                              ../final_sf_bsp//libhal_bsp.a(alt_iic.o) (alt_iic_isr_register)
../final_sf_bsp//libhal_bsp.a(alt_io_redirect.o)
                              ../final_sf_bsp//libhal_bsp.a(alt_main.o) (alt_io_redirect)
../final_sf_bsp//libhal_bsp.a(alt_irq_entry.o)
                              ../final_sf_bsp//libhal_bsp.a(alt_iic_isr_register.o) (alt_irq_entry)
../final_sf_bsp//libhal_bsp.a(alt_irq_handler.o)
                              ../final_sf_bsp//libhal_bsp.a(alt_iic_isr_register.o) (alt_irq)
../final_sf_bsp//libhal_bsp.a(alt_irq_vars.o)
                              ../final_sf_bsp//libhal_bsp.a(alt_iic.o) (alt_irq_active)
../final_sf_bsp//libhal_bsp.a(alt_tick.o)
                              ../final_sf_bsp//libhal_bsp.a(altera_avalon_timer_sc.o) (_alt_tick_rate)
../final_sf_bsp//libhal_bsp.a(altera_nios2_qsys_irq.o)
                              ../final_sf_bsp//libhal_bsp.a(alt_sys_init.o) (altera_nios2_qsys_irq_init)
../final_sf_bsp//libhal_bsp.a(alt_exception_entry.o)
                              ../final_sf_bsp//libhal_bsp.a(alt_irq_entry.o) (alt_exception)
../final_sf_bsp//libhal_bsp.a(alt_icache_flush.o)
                              ../final_sf_bsp//libhal_bsp.a(alt_icache_flush_all.o) (alt_icache_flush)
/home/pcmonkey/altera/13.1/nios2eds/bin/gnu/H-i686-pc-linux-gnu/bin/../lib/gcc/nios2-elf/4.7.3/../../../../../H-i686-pc-linux-gnu/nios2-elf/lib/mno-hw-mul/libc.a(lib_a-exit.o)
                              ../final_sf_bsp//libhal_bsp.a(alt_main.o) (exit)
/home/pcmonkey/altera/13.1/nios2eds/bin/gnu/H-i686-pc-linux-gnu/bin/../lib/gcc/nios2-elf/4.7.3/../../../../../H-i686-pc-linux-gnu/nios2-elf/lib/mno-hw-mul/libc.a(lib_a-memcmp.o)
                              ../final_sf_bsp//libhal_bsp.a(alt_find_dev.o) (memcmp)
/home/pcmonkey/altera/13.1/nios2eds/bin/gnu/H-i686-pc-linux-gnu/bin/../lib/gcc/nios2-elf/4.7.3/../../../../../H-i686-pc-linux-gnu/nios2-elf/lib/mno-hw-mul/libc.a(lib_a-__call_atexit.o)
                              /home/pcmonkey/altera/13.1/nios2eds/bin/gnu/H-i686-pc-linux-gnu/bin/../lib/gcc/nios2-elf/4.7.3/../../../../../H-i686-pc-linux-gnu/nios2-elf/lib/mno-hw-mul/libc.a(lib_a-exit.o) (__call_exitprocs)
../final_sf_bsp//libhal_bsp.a(alt_exit.o)
                              /home/pcmonkey/altera/13.1/nios2eds/bin/gnu/H-i686-pc-linux-gnu/bin/../lib/gcc/nios2-elf/4.7.3/../../../../../H-i686-pc-linux-gnu/nios2-elf/lib/mno-hw-mul/libc.a(lib_a-exit.o) (_exit)

Allocating common symbols
Common symbol       size              file

alt_irq             0x100             ../final_sf_bsp//libhal_bsp.a(alt_irq_handler.o)
errno               0x4               /home/pcmonkey/altera/13.1/nios2eds/bin/gnu/H-i686-pc-linux-gnu/bin/../lib/gcc/nios2-elf/4.7.3/../../../../../H-i686-pc-linux-gnu/nios2-elf/lib/mno-hw-mul/libc.a(lib_a-int_errno.o)

Memory Configuration

Name             Origin             Length             Attributes
reset            0x00020000         0x00000020
tightly_coupled_instruction_memory 0x00020020         0x00013860
tightly_coupled_data_memory 0x00040000         0x00004e20
*default*        0x00000000         0xffffffff

Linker script and memory map

LOAD ../final_sf_bsp//obj/HAL/src/crt0.o
LOAD obj/default/umain.o
LOAD /home/pcmonkey/altera/13.1/nios2eds/bin/gnu/H-i686-pc-linux-gnu/bin/../lib/gcc/nios2-elf/4.7.3/../../../../../H-i686-pc-linux-gnu/nios2-elf/lib/mno-hw-mul/libstdc++.a
LOAD /home/pcmonkey/altera/13.1/nios2eds/bin/gnu/H-i686-pc-linux-gnu/bin/../lib/gcc/nios2-elf/4.7.3/../../../../../H-i686-pc-linux-gnu/nios2-elf/lib/mno-hw-mul/libm.a
LOAD /home/pcmonkey/altera/13.1/nios2eds/bin/gnu/H-i686-pc-linux-gnu/bin/../lib/gcc/nios2-elf/4.7.3/mno-hw-mul/libgcc.a
START GROUP
LOAD /home/pcmonkey/altera/13.1/nios2eds/bin/gnu/H-i686-pc-linux-gnu/bin/../lib/gcc/nios2-elf/4.7.3/../../../../../H-i686-pc-linux-gnu/nios2-elf/lib/mno-hw-mul/libc.a
LOAD /home/pcmonkey/altera/13.1/nios2eds/bin/gnu/H-i686-pc-linux-gnu/bin/../lib/gcc/nios2-elf/4.7.3/mno-hw-mul/libgcc.a
LOAD ../final_sf_bsp//libhal_bsp.a
END GROUP
LOAD /home/pcmonkey/altera/13.1/nios2eds/bin/gnu/H-i686-pc-linux-gnu/bin/../lib/gcc/nios2-elf/4.7.3/mno-hw-mul/libgcc.a
                0x00020000                __alt_mem_tightly_coupled_instruction_memory = 0x20000
                0x00040000                __alt_mem_tightly_coupled_data_memory = 0x40000

.entry          0x00020000       0x20
 *(.entry)
 .entry         0x00020000       0x20 ../final_sf_bsp//obj/HAL/src/crt0.o
                0x00020000                __reset

.exceptions     0x00020020      0x198
                0x00020020                PROVIDE (__ram_exceptions_start, ABSOLUTE (.))
                0x00020020                . = ALIGN (0x20)
 *(.irq)
 *(.exceptions.entry.label)
 .exceptions.entry.label
                0x00020020        0x0 ../final_sf_bsp//libhal_bsp.a(alt_irq_entry.o)
                0x00020020                alt_irq_entry
 .exceptions.entry.label
                0x00020020        0x0 ../final_sf_bsp//libhal_bsp.a(alt_exception_entry.o)
                0x00020020                alt_exception
 *(.exceptions.entry.user)
 *(.exceptions.entry.ecc_fatal)
 *(.exceptions.entry)
 .exceptions.entry
                0x00020020       0x54 ../final_sf_bsp//libhal_bsp.a(alt_exception_entry.o)
 *(.exceptions.irqtest.user)
 *(.exceptions.irqtest)
 .exceptions.irqtest
                0x00020074       0x10 ../final_sf_bsp//libhal_bsp.a(alt_irq_entry.o)
 *(.exceptions.irqhandler.user)
 *(.exceptions.irqhandler)
 .exceptions.irqhandler
                0x00020084        0x4 ../final_sf_bsp//libhal_bsp.a(alt_irq_entry.o)
 *(.exceptions.irqreturn.user)
 *(.exceptions.irqreturn)
 .exceptions.irqreturn
                0x00020088        0x4 ../final_sf_bsp//libhal_bsp.a(alt_irq_entry.o)
 *(.exceptions.notirq.label)
 .exceptions.notirq.label
                0x0002008c        0x0 ../final_sf_bsp//libhal_bsp.a(alt_irq_entry.o)
 *(.exceptions.notirq.user)
 *(.exceptions.notirq)
 .exceptions.notirq
                0x0002008c        0x8 ../final_sf_bsp//libhal_bsp.a(alt_exception_entry.o)
 *(.exceptions.soft.user)
 *(.exceptions.soft)
 *(.exceptions.unknown.user)
 *(.exceptions.unknown)
 .exceptions.unknown
                0x00020094        0x4 ../final_sf_bsp//libhal_bsp.a(alt_exception_entry.o)
 *(.exceptions.exit.label)
 .exceptions.exit.label
                0x00020098        0x0 ../final_sf_bsp//libhal_bsp.a(alt_irq_entry.o)
 .exceptions.exit.label
                0x00020098        0x0 ../final_sf_bsp//libhal_bsp.a(alt_exception_entry.o)
 *(.exceptions.exit.user)
 *(.exceptions.exit)
 .exceptions.exit
                0x00020098       0x54 ../final_sf_bsp//libhal_bsp.a(alt_exception_entry.o)
 *(.exceptions)
 .exceptions    0x000200ec       0xcc ../final_sf_bsp//libhal_bsp.a(alt_irq_handler.o)
                0x000200ec                alt_irq_handler
                0x000201b8                PROVIDE (__ram_exceptions_end, ABSOLUTE (.))
                0x00020020                PROVIDE (__flash_exceptions_start, LOADADDR (.exceptions))

.text           0x000201b8     0xd490
                0x000201b8                PROVIDE (stext, ABSOLUTE (.))
 *(.interp)
 *(.hash)
 *(.dynsym)
 *(.dynstr)
 *(.gnu.version)
 *(.gnu.version_d)
 *(.gnu.version_r)
 *(.rel.init)
 *(.rela.init)
 *(.rel.text .rel.text.* .rel.gnu.linkonce.t.*)
 *(.rela.text .rela.text.* .rela.gnu.linkonce.t.*)
 *(.rel.fini)
 *(.rela.fini)
 *(.rel.rodata .rel.rodata.* .rel.gnu.linkonce.r.*)
 *(.rela.rodata .rela.rodata.* .rela.gnu.linkonce.r.*)
 *(.rel.data .rel.data.* .rel.gnu.linkonce.d.*)
 *(.rela.data .rela.data.* .rela.gnu.linkonce.d.*)
 *(.rel.tdata .rel.tdata.* .rel.gnu.linkonce.td.*)
 *(.rela.tdata .rela.tdata.* .rela.gnu.linkonce.td.*)
 *(.rel.tbss .rel.tbss.* .rel.gnu.linkonce.tb.*)
 *(.rela.tbss .rela.tbss.* .rela.gnu.linkonce.tb.*)
 *(.rel.ctors)
 *(.rela.ctors)
 *(.rel.dtors)
 *(.rela.dtors)
 *(.rel.got)
 *(.rela.got)
 *(.rel.sdata .rel.sdata.* .rel.gnu.linkonce.s.*)
 *(.rela.sdata .rela.sdata.* .rela.gnu.linkonce.s.*)
 *(.rel.sbss .rel.sbss.* .rel.gnu.linkonce.sb.*)
 *(.rela.sbss .rela.sbss.* .rela.gnu.linkonce.sb.*)
 *(.rel.sdata2 .rel.sdata2.* .rel.gnu.linkonce.s2.*)
 *(.rela.sdata2 .rela.sdata2.* .rela.gnu.linkonce.s2.*)
 *(.rel.sbss2 .rel.sbss2.* .rel.gnu.linkonce.sb2.*)
 *(.rela.sbss2 .rela.sbss2.* .rela.gnu.linkonce.sb2.*)
 *(.rel.bss .rel.bss.* .rel.gnu.linkonce.b.*)
 *(.rela.bss .rela.bss.* .rela.gnu.linkonce.b.*)
 *(.rel.plt)
 *(.rela.plt)
 *(.rel.dyn)
 *(.init)
 *(.plt)
 *(.text .stub .text.* .gnu.linkonce.t.*)
 .text          0x000201b8       0x4c ../final_sf_bsp//obj/HAL/src/crt0.o
                0x000201b8                _start
 .text          0x00020204      0xc38 obj/default/umain.o
                0x00020204                About
                0x00020234                Menu1
                0x00020270                Menu2
                0x000202ac                Menu3
                0x000202e8                Menu4
                0x00020324                MapMenu1
                0x00020360                MapMenu2
                0x0002039c                MapMenu3
                0x000203d8                MapMenu4
                0x00020414                MapMenu5
                0x00020450                MapMenu6
                0x0002048c                MapMenu7
                0x000204c8                MainMap
                0x00020890                MainCalc
                0x00020c58                MainMenu
                0x00020e04                main
 .text          0x00020e3c       0x28 /home/pcmonkey/altera/13.1/nios2eds/bin/gnu/H-i686-pc-linux-gnu/bin/../lib/gcc/nios2-elf/4.7.3/mno-hw-mul/libgcc.a(lib2-mul.o)
                0x00020e3c                __mulsi3
 .text          0x00020e64      0x150 /home/pcmonkey/altera/13.1/nios2eds/bin/gnu/H-i686-pc-linux-gnu/bin/../lib/gcc/nios2-elf/4.7.3/../../../../../H-i686-pc-linux-gnu/nios2-elf/lib/mno-hw-mul/libc.a(lib_a-fclose.o)
                0x00020e64                _fclose_r
                0x00020fa0                fclose
 .text          0x00020fb4      0x218 /home/pcmonkey/altera/13.1/nios2eds/bin/gnu/H-i686-pc-linux-gnu/bin/../lib/gcc/nios2-elf/4.7.3/../../../../../H-i686-pc-linux-gnu/nios2-elf/lib/mno-hw-mul/libc.a(lib_a-fflush.o)
                0x00020fb4                _fflush_r
                0x0002119c                fflush
 .text          0x000211cc      0x2ec /home/pcmonkey/altera/13.1/nios2eds/bin/gnu/H-i686-pc-linux-gnu/bin/../lib/gcc/nios2-elf/4.7.3/../../../../../H-i686-pc-linux-gnu/nios2-elf/lib/mno-hw-mul/libc.a(lib_a-findfp.o)
                0x000211dc                _cleanup_r
                0x000211e8                __sfmoreglue
                0x00021260                _cleanup
                0x00021270                __sinit
                0x0002137c                __sfp
                0x00021478                __sfp_lock_acquire
                0x0002147c                __sfp_lock_release
                0x00021480                __sinit_lock_acquire
                0x00021484                __sinit_lock_release
                0x00021488                __fp_lock_all
                0x000214a0                __fp_unlock_all
 .text          0x000214b8      0x14c /home/pcmonkey/altera/13.1/nios2eds/bin/gnu/H-i686-pc-linux-gnu/bin/../lib/gcc/nios2-elf/4.7.3/../../../../../H-i686-pc-linux-gnu/nios2-elf/lib/mno-hw-mul/libc.a(lib_a-fopen.o)
                0x000214b8                _fopen_r
                0x000215e8                fopen
 .text          0x00021604       0x4c /home/pcmonkey/altera/13.1/nios2eds/bin/gnu/H-i686-pc-linux-gnu/bin/../lib/gcc/nios2-elf/4.7.3/../../../../../H-i686-pc-linux-gnu/nios2-elf/lib/mno-hw-mul/libc.a(lib_a-fprintf.o)
                0x00021604                _fprintf_r
                0x0002162c                fprintf
 .text          0x00021650      0x40c /home/pcmonkey/altera/13.1/nios2eds/bin/gnu/H-i686-pc-linux-gnu/bin/../lib/gcc/nios2-elf/4.7.3/../../../../../H-i686-pc-linux-gnu/nios2-elf/lib/mno-hw-mul/libc.a(lib_a-freer.o)
                0x00021650                _malloc_trim_r
                0x0002178c                _free_r
 .text          0x00021a5c      0x498 /home/pcmonkey/altera/13.1/nios2eds/bin/gnu/H-i686-pc-linux-gnu/bin/../lib/gcc/nios2-elf/4.7.3/../../../../../H-i686-pc-linux-gnu/nios2-elf/lib/mno-hw-mul/libc.a(lib_a-fseek.o)
                0x00021a5c                _fseek_r
                0x00021ed0                fseek
 .text          0x00021ef4       0x68 /home/pcmonkey/altera/13.1/nios2eds/bin/gnu/H-i686-pc-linux-gnu/bin/../lib/gcc/nios2-elf/4.7.3/../../../../../H-i686-pc-linux-gnu/nios2-elf/lib/mno-hw-mul/libc.a(lib_a-fstatr.o)
                0x00021ef4                _fstat_r
 .text          0x00021f5c      0x160 /home/pcmonkey/altera/13.1/nios2eds/bin/gnu/H-i686-pc-linux-gnu/bin/../lib/gcc/nios2-elf/4.7.3/../../../../../H-i686-pc-linux-gnu/nios2-elf/lib/mno-hw-mul/libc.a(lib_a-fwalk.o)
                0x00021f5c                _fwalk
                0x00022004                _fwalk_reent
 .text          0x000220bc        0x0 /home/pcmonkey/altera/13.1/nios2eds/bin/gnu/H-i686-pc-linux-gnu/bin/../lib/gcc/nios2-elf/4.7.3/../../../../../H-i686-pc-linux-gnu/nios2-elf/lib/mno-hw-mul/libc.a(lib_a-impure.o)
 .text          0x000220bc        0x0 /home/pcmonkey/altera/13.1/nios2eds/bin/gnu/H-i686-pc-linux-gnu/bin/../lib/gcc/nios2-elf/4.7.3/../../../../../H-i686-pc-linux-gnu/nios2-elf/lib/mno-hw-mul/libc.a(lib_a-int_errno.o)
 .text          0x000220bc      0x1a8 /home/pcmonkey/altera/13.1/nios2eds/bin/gnu/H-i686-pc-linux-gnu/bin/../lib/gcc/nios2-elf/4.7.3/../../../../../H-i686-pc-linux-gnu/nios2-elf/lib/mno-hw-mul/libc.a(lib_a-makebuf.o)
                0x000220bc                __smakebuf_r
 .text          0x00022264      0x784 /home/pcmonkey/altera/13.1/nios2eds/bin/gnu/H-i686-pc-linux-gnu/bin/../lib/gcc/nios2-elf/4.7.3/../../../../../H-i686-pc-linux-gnu/nios2-elf/lib/mno-hw-mul/libc.a(lib_a-mallocr.o)
                0x00022264                _malloc_r
 .text          0x000229e8       0xdc /home/pcmonkey/altera/13.1/nios2eds/bin/gnu/H-i686-pc-linux-gnu/bin/../lib/gcc/nios2-elf/4.7.3/../../../../../H-i686-pc-linux-gnu/nios2-elf/lib/mno-hw-mul/libc.a(lib_a-memset.o)
                0x000229e8                memset
 .text          0x00022ac4       0x6c /home/pcmonkey/altera/13.1/nios2eds/bin/gnu/H-i686-pc-linux-gnu/bin/../lib/gcc/nios2-elf/4.7.3/../../../../../H-i686-pc-linux-gnu/nios2-elf/lib/mno-hw-mul/libc.a(lib_a-openr.o)
                0x00022ac4                _open_r
 .text          0x00022b30       0x98 /home/pcmonkey/altera/13.1/nios2eds/bin/gnu/H-i686-pc-linux-gnu/bin/../lib/gcc/nios2-elf/4.7.3/../../../../../H-i686-pc-linux-gnu/nios2-elf/lib/mno-hw-mul/libc.a(lib_a-puts.o)
                0x00022b30                _puts_r
                0x00022bb4                puts
 .text          0x00022bc8      0x208 /home/pcmonkey/altera/13.1/nios2eds/bin/gnu/H-i686-pc-linux-gnu/bin/../lib/gcc/nios2-elf/4.7.3/../../../../../H-i686-pc-linux-gnu/nios2-elf/lib/mno-hw-mul/libc.a(lib_a-refill.o)
                0x00022be4                __srefill_r
 .text          0x00022dd0       0x64 /home/pcmonkey/altera/13.1/nios2eds/bin/gnu/H-i686-pc-linux-gnu/bin/../lib/gcc/nios2-elf/4.7.3/../../../../../H-i686-pc-linux-gnu/nios2-elf/lib/mno-hw-mul/libc.a(lib_a-sbrkr.o)
                0x00022dd0                _sbrk_r
 .text          0x00022e34      0x140 /home/pcmonkey/altera/13.1/nios2eds/bin/gnu/H-i686-pc-linux-gnu/bin/../lib/gcc/nios2-elf/4.7.3/../../../../../H-i686-pc-linux-gnu/nios2-elf/lib/mno-hw-mul/libc.a(lib_a-stdio.o)
                0x00022e34                __sread
                0x00022e88                __swrite
                0x00022f10                __sseek
                0x00022f6c                __sclose
 .text          0x00022f74       0x8c /home/pcmonkey/altera/13.1/nios2eds/bin/gnu/H-i686-pc-linux-gnu/bin/../lib/gcc/nios2-elf/4.7.3/../../../../../H-i686-pc-linux-gnu/nios2-elf/lib/mno-hw-mul/libc.a(lib_a-strlen.o)
                0x00022f74                strlen
 .text          0x00023000     0x1ed4 /home/pcmonkey/altera/13.1/nios2eds/bin/gnu/H-i686-pc-linux-gnu/bin/../lib/gcc/nios2-elf/4.7.3/../../../../../H-i686-pc-linux-gnu/nios2-elf/lib/mno-hw-mul/libc.a(lib_a-vfprintf.o)
                0x00023034                ___vfprintf_internal_r
                0x00024eb0                __vfprintf_internal
 .text          0x00024ed4       0x6c /home/pcmonkey/altera/13.1/nios2eds/bin/gnu/H-i686-pc-linux-gnu/bin/../lib/gcc/nios2-elf/4.7.3/../../../../../H-i686-pc-linux-gnu/nios2-elf/lib/mno-hw-mul/libc.a(lib_a-writer.o)
                0x00024ed4                _write_r
 .text          0x00024f40      0x174 /home/pcmonkey/altera/13.1/nios2eds/bin/gnu/H-i686-pc-linux-gnu/bin/../lib/gcc/nios2-elf/4.7.3/../../../../../H-i686-pc-linux-gnu/nios2-elf/lib/mno-hw-mul/libc.a(lib_a-wsetup.o)
                0x00024f40                __swsetup_r
 .text          0x000250b4       0x64 /home/pcmonkey/altera/13.1/nios2eds/bin/gnu/H-i686-pc-linux-gnu/bin/../lib/gcc/nios2-elf/4.7.3/../../../../../H-i686-pc-linux-gnu/nios2-elf/lib/mno-hw-mul/libc.a(lib_a-closer.o)
                0x000250b4                _close_r
 .text          0x00025118     0x1858 /home/pcmonkey/altera/13.1/nios2eds/bin/gnu/H-i686-pc-linux-gnu/bin/../lib/gcc/nios2-elf/4.7.3/../../../../../H-i686-pc-linux-gnu/nios2-elf/lib/mno-hw-mul/libc.a(lib_a-dtoa.o)
                0x00025354                _dtoa_r
 .text          0x00026970       0x98 /home/pcmonkey/altera/13.1/nios2eds/bin/gnu/H-i686-pc-linux-gnu/bin/../lib/gcc/nios2-elf/4.7.3/../../../../../H-i686-pc-linux-gnu/nios2-elf/lib/mno-hw-mul/libc.a(lib_a-flags.o)
                0x00026970                __sflags
 .text          0x00026a08      0x4e4 /home/pcmonkey/altera/13.1/nios2eds/bin/gnu/H-i686-pc-linux-gnu/bin/../lib/gcc/nios2-elf/4.7.3/../../../../../H-i686-pc-linux-gnu/nios2-elf/lib/mno-hw-mul/libc.a(lib_a-fvwrite.o)
                0x00026a08                __sfvwrite_r
 .text          0x00026eec       0x64 /home/pcmonkey/altera/13.1/nios2eds/bin/gnu/H-i686-pc-linux-gnu/bin/../lib/gcc/nios2-elf/4.7.3/../../../../../H-i686-pc-linux-gnu/nios2-elf/lib/mno-hw-mul/libc.a(lib_a-isattyr.o)
                0x00026eec                _isatty_r
 .text          0x00026f50       0xdc /home/pcmonkey/altera/13.1/nios2eds/bin/gnu/H-i686-pc-linux-gnu/bin/../lib/gcc/nios2-elf/4.7.3/../../../../../H-i686-pc-linux-gnu/nios2-elf/lib/mno-hw-mul/libc.a(lib_a-locale.o)
                0x00026f50                _setlocale_r
                0x00026fec                __locale_charset
                0x00026ff8                _localeconv_r
                0x00027004                setlocale
                0x00027020                localeconv
 .text          0x0002702c       0x6c /home/pcmonkey/altera/13.1/nios2eds/bin/gnu/H-i686-pc-linux-gnu/bin/../lib/gcc/nios2-elf/4.7.3/../../../../../H-i686-pc-linux-gnu/nios2-elf/lib/mno-hw-mul/libc.a(lib_a-lseekr.o)
                0x0002702c                _lseek_r
 .text          0x00027098       0xf8 /home/pcmonkey/altera/13.1/nios2eds/bin/gnu/H-i686-pc-linux-gnu/bin/../lib/gcc/nios2-elf/4.7.3/../../../../../H-i686-pc-linux-gnu/nios2-elf/lib/mno-hw-mul/libc.a(lib_a-memchr.o)
                0x00027098                memchr
 .text          0x00027190      0x140 /home/pcmonkey/altera/13.1/nios2eds/bin/gnu/H-i686-pc-linux-gnu/bin/../lib/gcc/nios2-elf/4.7.3/../../../../../H-i686-pc-linux-gnu/nios2-elf/lib/mno-hw-mul/libc.a(lib_a-memcpy.o)
                0x00027190                memcpy
 .text          0x000272d0      0x18c /home/pcmonkey/altera/13.1/nios2eds/bin/gnu/H-i686-pc-linux-gnu/bin/../lib/gcc/nios2-elf/4.7.3/../../../../../H-i686-pc-linux-gnu/nios2-elf/lib/mno-hw-mul/libc.a(lib_a-memmove.o)
                0x000272d0                memmove
 .text          0x0002745c     0x1050 /home/pcmonkey/altera/13.1/nios2eds/bin/gnu/H-i686-pc-linux-gnu/bin/../lib/gcc/nios2-elf/4.7.3/../../../../../H-i686-pc-linux-gnu/nios2-elf/lib/mno-hw-mul/libc.a(lib_a-mprec.o)
                0x0002745c                _Balloc
                0x00027504                _Bfree
                0x0002752c                __multadd
                0x00027670                __s2b
                0x00027774                __hi0bits
                0x000277dc                __lo0bits
                0x0002788c                __i2b
                0x000278c8                __multiply
                0x00027b20                __pow5mult
                0x00027c4c                __lshift
                0x00027da8                __mcmp
                0x00027e00                __mdiff
                0x00027fa8                __ulp
                0x00028008                __b2d
                0x00028150                __d2b
                0x00028294                __ratio
                0x00028338                _mprec_log10
                0x000283ac                __copybits
                0x00028428                __any_on
 .text          0x000284ac       0x6c /home/pcmonkey/altera/13.1/nios2eds/bin/gnu/H-i686-pc-linux-gnu/bin/../lib/gcc/nios2-elf/4.7.3/../../../../../H-i686-pc-linux-gnu/nios2-elf/lib/mno-hw-mul/libc.a(lib_a-readr.o)
                0x000284ac                _read_r
 .text          0x00028518      0x5fc /home/pcmonkey/altera/13.1/nios2eds/bin/gnu/H-i686-pc-linux-gnu/bin/../lib/gcc/nios2-elf/4.7.3/../../../../../H-i686-pc-linux-gnu/nios2-elf/lib/mno-hw-mul/libc.a(lib_a-reallocr.o)
                0x00028518                _realloc_r
 .text          0x00028b14       0x38 /home/pcmonkey/altera/13.1/nios2eds/bin/gnu/H-i686-pc-linux-gnu/bin/../lib/gcc/nios2-elf/4.7.3/../../../../../H-i686-pc-linux-gnu/nios2-elf/lib/mno-hw-mul/libc.a(lib_a-s_isinfd.o)
                0x00028b14                __isinfd
 .text          0x00028b4c       0x2c /home/pcmonkey/altera/13.1/nios2eds/bin/gnu/H-i686-pc-linux-gnu/bin/../lib/gcc/nios2-elf/4.7.3/../../../../../H-i686-pc-linux-gnu/nios2-elf/lib/mno-hw-mul/libc.a(lib_a-s_isnand.o)
                0x00028b4c                __isnand
 .text          0x00028b78       0xa4 /home/pcmonkey/altera/13.1/nios2eds/bin/gnu/H-i686-pc-linux-gnu/bin/../lib/gcc/nios2-elf/4.7.3/../../../../../H-i686-pc-linux-gnu/nios2-elf/lib/mno-hw-mul/libc.a(lib_a-strcmp.o)
                0x00028b78                strcmp
 .text          0x00028c1c       0xcc /home/pcmonkey/altera/13.1/nios2eds/bin/gnu/H-i686-pc-linux-gnu/bin/../lib/gcc/nios2-elf/4.7.3/../../../../../H-i686-pc-linux-gnu/nios2-elf/lib/mno-hw-mul/libc.a(lib_a-callocr.o)
                0x00028c1c                _calloc_r
 .text          0x00028ce8      0x650 /home/pcmonkey/altera/13.1/nios2eds/bin/gnu/H-i686-pc-linux-gnu/bin/../lib/gcc/nios2-elf/4.7.3/mno-hw-mul/libgcc.a(_udivdi3.o)
                0x00028ce8                __udivdi3
 .text          0x00029338      0x628 /home/pcmonkey/altera/13.1/nios2eds/bin/gnu/H-i686-pc-linux-gnu/bin/../lib/gcc/nios2-elf/4.7.3/mno-hw-mul/libgcc.a(_umoddi3.o)
                0x00029338                __umoddi3
 .text          0x00029960      0x408 /home/pcmonkey/altera/13.1/nios2eds/bin/gnu/H-i686-pc-linux-gnu/bin/../lib/gcc/nios2-elf/4.7.3/mno-hw-mul/libgcc.a(_addsub_df.o)
                0x00029cb4                __adddf3
                0x00029d08                __subdf3
 .text          0x00029d68      0x2e4 /home/pcmonkey/altera/13.1/nios2eds/bin/gnu/H-i686-pc-linux-gnu/bin/../lib/gcc/nios2-elf/4.7.3/mno-hw-mul/libgcc.a(_mul_df.o)
                0x00029d68                __muldf3
 .text          0x0002a04c      0x1b4 /home/pcmonkey/altera/13.1/nios2eds/bin/gnu/H-i686-pc-linux-gnu/bin/../lib/gcc/nios2-elf/4.7.3/mno-hw-mul/libgcc.a(_div_df.o)
                0x0002a04c                __divdf3
 .text          0x0002a200       0x5c /home/pcmonkey/altera/13.1/nios2eds/bin/gnu/H-i686-pc-linux-gnu/bin/../lib/gcc/nios2-elf/4.7.3/mno-hw-mul/libgcc.a(_eq_df.o)
                0x0002a200                __eqdf2
 .text          0x0002a25c       0x5c /home/pcmonkey/altera/13.1/nios2eds/bin/gnu/H-i686-pc-linux-gnu/bin/../lib/gcc/nios2-elf/4.7.3/mno-hw-mul/libgcc.a(_ne_df.o)
                0x0002a25c                __nedf2
 .text          0x0002a2b8       0x64 /home/pcmonkey/altera/13.1/nios2eds/bin/gnu/H-i686-pc-linux-gnu/bin/../lib/gcc/nios2-elf/4.7.3/mno-hw-mul/libgcc.a(_gt_df.o)
                0x0002a2b8                __gtdf2
 .text          0x0002a31c       0x64 /home/pcmonkey/altera/13.1/nios2eds/bin/gnu/H-i686-pc-linux-gnu/bin/../lib/gcc/nios2-elf/4.7.3/mno-hw-mul/libgcc.a(_ge_df.o)
                0x0002a31c                __gedf2
 .text          0x0002a380       0x5c /home/pcmonkey/altera/13.1/nios2eds/bin/gnu/H-i686-pc-linux-gnu/bin/../lib/gcc/nios2-elf/4.7.3/mno-hw-mul/libgcc.a(_lt_df.o)
                0x0002a380                __ltdf2
 .text          0x0002a3dc       0xd4 /home/pcmonkey/altera/13.1/nios2eds/bin/gnu/H-i686-pc-linux-gnu/bin/../lib/gcc/nios2-elf/4.7.3/mno-hw-mul/libgcc.a(_si_to_df.o)
                0x0002a3dc                __floatsidf
 .text          0x0002a4b0       0xd4 /home/pcmonkey/altera/13.1/nios2eds/bin/gnu/H-i686-pc-linux-gnu/bin/../lib/gcc/nios2-elf/4.7.3/mno-hw-mul/libgcc.a(_df_to_si.o)
                0x0002a4b0                __fixdfsi
 .text          0x0002a584        0x0 /home/pcmonkey/altera/13.1/nios2eds/bin/gnu/H-i686-pc-linux-gnu/bin/../lib/gcc/nios2-elf/4.7.3/mno-hw-mul/libgcc.a(_thenan_df.o)
 .text          0x0002a584      0x11c /home/pcmonkey/altera/13.1/nios2eds/bin/gnu/H-i686-pc-linux-gnu/bin/../lib/gcc/nios2-elf/4.7.3/mno-hw-mul/libgcc.a(_usi_to_df.o)
                0x0002a584                __floatunsidf
 .text          0x0002a6a0      0x130 /home/pcmonkey/altera/13.1/nios2eds/bin/gnu/H-i686-pc-linux-gnu/bin/../lib/gcc/nios2-elf/4.7.3/mno-hw-mul/libgcc.a(lib2-divmod.o)
                0x0002a714                __divsi3
                0x0002a764                __modsi3
                0x0002a7c0                __udivsi3
                0x0002a7c8                __umodsi3
 .text          0x0002a7d0      0x110 /home/pcmonkey/altera/13.1/nios2eds/bin/gnu/H-i686-pc-linux-gnu/bin/../lib/gcc/nios2-elf/4.7.3/mno-hw-mul/libgcc.a(_muldi3.o)
                0x0002a7d0                __muldi3
 .text          0x0002a8e0        0x0 /home/pcmonkey/altera/13.1/nios2eds/bin/gnu/H-i686-pc-linux-gnu/bin/../lib/gcc/nios2-elf/4.7.3/mno-hw-mul/libgcc.a(_clz.o)
 .text          0x0002a8e0       0xac /home/pcmonkey/altera/13.1/nios2eds/bin/gnu/H-i686-pc-linux-gnu/bin/../lib/gcc/nios2-elf/4.7.3/mno-hw-mul/libgcc.a(_clzsi2.o)
                0x0002a8e0                __clzsi2
 .text          0x0002a98c      0x224 /home/pcmonkey/altera/13.1/nios2eds/bin/gnu/H-i686-pc-linux-gnu/bin/../lib/gcc/nios2-elf/4.7.3/mno-hw-mul/libgcc.a(_pack_df.o)
                0x0002a98c                __pack_d
 .text          0x0002abb0      0x104 /home/pcmonkey/altera/13.1/nios2eds/bin/gnu/H-i686-pc-linux-gnu/bin/../lib/gcc/nios2-elf/4.7.3/mno-hw-mul/libgcc.a(_unpack_df.o)
                0x0002abb0                __unpack_d
 .text          0x0002acb4       0xd0 /home/pcmonkey/altera/13.1/nios2eds/bin/gnu/H-i686-pc-linux-gnu/bin/../lib/gcc/nios2-elf/4.7.3/mno-hw-mul/libgcc.a(_fpcmp_parts_df.o)
                0x0002acb4                __fpcmp_parts_d
 .text          0x0002ad84       0x44 /home/pcmonkey/altera/13.1/nios2eds/bin/gnu/H-i686-pc-linux-gnu/bin/../lib/gcc/nios2-elf/4.7.3/mno-hw-mul/libgcc.a(_lshrdi3.o)
                0x0002ad84                __lshrdi3
 .text          0x0002adc8       0x44 /home/pcmonkey/altera/13.1/nios2eds/bin/gnu/H-i686-pc-linux-gnu/bin/../lib/gcc/nios2-elf/4.7.3/mno-hw-mul/libgcc.a(_ashldi3.o)
                0x0002adc8                __ashldi3
 .text          0x0002ae0c      0x11c ../final_sf_bsp//libhal_bsp.a(alt_close.o)
                0x0002ae5c                close
 .text          0x0002af28       0x2c ../final_sf_bsp//libhal_bsp.a(alt_dev.o)
 .text          0x0002af54        0x0 ../final_sf_bsp//libhal_bsp.a(alt_errno.o)
 .text          0x0002af54      0x100 ../final_sf_bsp//libhal_bsp.a(alt_fstat.o)
                0x0002afa4                fstat
 .text          0x0002b054       0xf4 ../final_sf_bsp//libhal_bsp.a(alt_isatty.o)
                0x0002b0a4                isatty
 .text          0x0002b148       0xec ../final_sf_bsp//libhal_bsp.a(alt_load.o)
                0x0002b1b4                alt_load
 .text          0x0002b234      0x124 ../final_sf_bsp//libhal_bsp.a(alt_lseek.o)
                0x0002b284                lseek
 .text          0x0002b358       0x68 ../final_sf_bsp//libhal_bsp.a(alt_main.o)
                0x0002b358                alt_main
 .text          0x0002b3c0       0x40 ../final_sf_bsp//libhal_bsp.a(alt_malloc_lock.o)
                0x0002b3c0                __malloc_lock
                0x0002b3e0                __malloc_unlock
 .text          0x0002b400      0x298 ../final_sf_bsp//libhal_bsp.a(alt_open.o)
                0x0002b540                open
 .text          0x0002b698      0x144 ../final_sf_bsp//libhal_bsp.a(alt_read.o)
                0x0002b6e8                read
 .text          0x0002b7dc       0x80 ../final_sf_bsp//libhal_bsp.a(alt_release_fd.o)
                0x0002b7dc                alt_release_fd
 .text          0x0002b85c       0xb0 ../final_sf_bsp//libhal_bsp.a(alt_sbrk.o)
                0x0002b85c                sbrk
 .text          0x0002b90c       0x30 ../final_sf_bsp//libhal_bsp.a(alt_usleep.o)
                0x0002b90c                usleep
 .text          0x0002b93c      0x140 ../final_sf_bsp//libhal_bsp.a(alt_write.o)
                0x0002b98c                write
 .text          0x0002ba7c       0xd0 ../final_sf_bsp//libhal_bsp.a(alt_sys_init.o)
                0x0002bab4                alt_irq_init
                0x0002bae8                alt_sys_init
 .text          0x0002bb4c       0xc0 ../final_sf_bsp//libhal_bsp.a(altera_avalon_jtag_uart_fd.o)
                0x0002bb4c                altera_avalon_jtag_uart_read_fd
                0x0002bbac                altera_avalon_jtag_uart_write_fd
 .text          0x0002bc0c       0xf4 ../final_sf_bsp//libhal_bsp.a(altera_avalon_jtag_uart_read.o)
                0x0002bc0c                altera_avalon_jtag_uart_read
 .text          0x0002bd00       0x98 ../final_sf_bsp//libhal_bsp.a(altera_avalon_jtag_uart_write.o)
                0x0002bd00                altera_avalon_jtag_uart_write
 .text          0x0002bd98       0xfc ../final_sf_bsp//libhal_bsp.a(altera_avalon_timer_sc.o)
                0x0002be0c                alt_avalon_timer_sc_init
 .text          0x0002be94       0xc0 ../final_sf_bsp//libhal_bsp.a(altera_avalon_uart_fd.o)
                0x0002be94                altera_avalon_uart_read_fd
                0x0002bef4                altera_avalon_uart_write_fd
 .text          0x0002bf54      0x110 ../final_sf_bsp//libhal_bsp.a(altera_avalon_uart_read.o)
                0x0002bfa4                altera_avalon_uart_read
 .text          0x0002c064      0x12c ../final_sf_bsp//libhal_bsp.a(altera_avalon_uart_write.o)
                0x0002c0b4                altera_avalon_uart_write
 .text          0x0002c190      0x628 ../final_sf_bsp//libhal_bsp.a(altera_hostfs.o)
                0x0002c190                alt_hostfs_open
                0x0002c2fc                alt_hostfs_close
                0x0002c368                alt_hostfs_read
                0x0002c420                alt_hostfs_write
                0x0002c4d8                alt_hostfs_seek
                0x0002c590                alt_hostfs_fstat
 .text          0x0002c7b8      0x138 ../final_sf_bsp//libhal_bsp.a(alt_busy_sleep.o)
                0x0002c7b8                alt_busy_sleep
 .text          0x0002c8f0       0x44 ../final_sf_bsp//libhal_bsp.a(alt_dcache_flush_all.o)
                0x0002c8f0                alt_dcache_flush_all
 .text          0x0002c934       0xf0 ../final_sf_bsp//libhal_bsp.a(alt_dev_llist_insert.o)
                0x0002c984                alt_dev_llist_insert
 .text          0x0002ca24       0x90 ../final_sf_bsp//libhal_bsp.a(alt_find_dev.o)
                0x0002ca24                alt_find_dev
 .text          0x0002cab4      0x114 ../final_sf_bsp//libhal_bsp.a(alt_find_file.o)
                0x0002cab4                alt_find_file
 .text          0x0002cbc8       0x84 ../final_sf_bsp//libhal_bsp.a(alt_fs_reg.o)
                0x0002cbc8                alt_fs_reg
 .text          0x0002cc4c       0xd4 ../final_sf_bsp//libhal_bsp.a(alt_get_fd.o)
                0x0002cc4c                alt_get_fd
 .text          0x0002cd20       0x30 ../final_sf_bsp//libhal_bsp.a(alt_icache_flush_all.o)
                0x0002cd20                alt_icache_flush_all
 .text          0x0002cd50      0x1d8 ../final_sf_bsp//libhal_bsp.a(alt_iic.o)
                0x0002cd50                alt_ic_isr_register
                0x0002cda0                alt_ic_irq_enable
                0x0002ce3c                alt_ic_irq_disable
                0x0002cedc                alt_ic_irq_enabled
 .text          0x0002cf28       0xf0 ../final_sf_bsp//libhal_bsp.a(alt_iic_isr_register.o)
                0x0002cf28                alt_iic_isr_register
 .text          0x0002d018      0x158 ../final_sf_bsp//libhal_bsp.a(alt_io_redirect.o)
                0x0002d0f8                alt_io_redirect
 .text          0x0002d170        0x0 ../final_sf_bsp//libhal_bsp.a(alt_irq_entry.o)
 .text          0x0002d170        0x0 ../final_sf_bsp//libhal_bsp.a(alt_irq_handler.o)
 .text          0x0002d170        0x0 ../final_sf_bsp//libhal_bsp.a(alt_irq_vars.o)
 .text          0x0002d170      0x19c ../final_sf_bsp//libhal_bsp.a(alt_tick.o)
                0x0002d170                alt_alarm_stop
                0x0002d208                alt_tick
 .text          0x0002d30c       0x20 ../final_sf_bsp//libhal_bsp.a(altera_nios2_qsys_irq.o)
                0x0002d30c                altera_nios2_qsys_irq_init
 .text          0x0002d32c        0x0 ../final_sf_bsp//libhal_bsp.a(alt_exception_entry.o)
 .text          0x0002d32c       0x8c ../final_sf_bsp//libhal_bsp.a(alt_icache_flush.o)
                0x0002d32c                alt_icache_flush
 .text          0x0002d3b8       0x38 /home/pcmonkey/altera/13.1/nios2eds/bin/gnu/H-i686-pc-linux-gnu/bin/../lib/gcc/nios2-elf/4.7.3/../../../../../H-i686-pc-linux-gnu/nios2-elf/lib/mno-hw-mul/libc.a(lib_a-exit.o)
                0x0002d3b8                exit
 .text          0x0002d3f0       0x7c /home/pcmonkey/altera/13.1/nios2eds/bin/gnu/H-i686-pc-linux-gnu/bin/../lib/gcc/nios2-elf/4.7.3/../../../../../H-i686-pc-linux-gnu/nios2-elf/lib/mno-hw-mul/libc.a(lib_a-memcmp.o)
                0x0002d3f0                memcmp
 .text          0x0002d46c      0x1a0 /home/pcmonkey/altera/13.1/nios2eds/bin/gnu/H-i686-pc-linux-gnu/bin/../lib/gcc/nios2-elf/4.7.3/../../../../../H-i686-pc-linux-gnu/nios2-elf/lib/mno-hw-mul/libc.a(lib_a-__call_atexit.o)
                0x0002d46c                __call_exitprocs
 .text          0x0002d60c       0x3c ../final_sf_bsp//libhal_bsp.a(alt_exit.o)
                0x0002d60c                _exit
 *(.gnu.warning.*)
 *(.fini)
                0x0002d648                PROVIDE (__etext, ABSOLUTE (.))
                0x0002d648                PROVIDE (_etext, ABSOLUTE (.))
                0x0002d648                PROVIDE (etext, ABSOLUTE (.))
 *(.eh_frame_hdr)
                0x0002d648                . = ALIGN (0x4)
                0x0002d648                PROVIDE (__preinit_array_start, ABSOLUTE (.))
 *(.preinit_array)
                0x0002d648                PROVIDE (__preinit_array_end, ABSOLUTE (.))
                0x0002d648                PROVIDE (__init_array_start, ABSOLUTE (.))
 *(.init_array)
                0x0002d648                PROVIDE (__init_array_end, ABSOLUTE (.))
                0x0002d648                PROVIDE (__fini_array_start, ABSOLUTE (.))
 *(.fini_array)
                0x0002d648                PROVIDE (__fini_array_end, ABSOLUTE (.))
 *(.eh_frame)
 *(.gcc_except_table .gcc_except_table.*)
 *(.dynamic)
                0x0002d648                PROVIDE (__CTOR_LIST__, ABSOLUTE (.))
 *(.ctors)
 *(SORT(.ctors.*))
                0x0002d648                PROVIDE (__CTOR_END__, ABSOLUTE (.))
                0x0002d648                PROVIDE (__DTOR_LIST__, ABSOLUTE (.))
 *(.dtors)
 *(SORT(.dtors.*))
                0x0002d648                PROVIDE (__DTOR_END__, ABSOLUTE (.))
 *(.jcr)
                0x0002d648                . = ALIGN (0x4)

.rodata         0x0002d648     0x11f8
                0x0002d648                PROVIDE (__ram_rodata_start, ABSOLUTE (.))
                0x0002d648                . = ALIGN (0x4)
 *(.rodata .rodata.* .gnu.linkonce.r.*)
 .rodata        0x0002d648      0xec0 obj/default/umain.o
 .rodata.str1.4
                0x0002e508        0x2 /home/pcmonkey/altera/13.1/nios2eds/bin/gnu/H-i686-pc-linux-gnu/bin/../lib/gcc/nios2-elf/4.7.3/../../../../../H-i686-pc-linux-gnu/nios2-elf/lib/mno-hw-mul/libc.a(lib_a-impure.o)
                                  0x4 (size before relaxing)
 *fill*         0x0002e50a        0x2 
 .rodata.str1.4
                0x0002e50c        0x2 /home/pcmonkey/altera/13.1/nios2eds/bin/gnu/H-i686-pc-linux-gnu/bin/../lib/gcc/nios2-elf/4.7.3/../../../../../H-i686-pc-linux-gnu/nios2-elf/lib/mno-hw-mul/libc.a(lib_a-puts.o)
                                  0x4 (size before relaxing)
 *fill*         0x0002e50e        0x2 
 .rodata.str1.4
                0x0002e510       0x42 /home/pcmonkey/altera/13.1/nios2eds/bin/gnu/H-i686-pc-linux-gnu/bin/../lib/gcc/nios2-elf/4.7.3/../../../../../H-i686-pc-linux-gnu/nios2-elf/lib/mno-hw-mul/libc.a(lib_a-vfprintf.o)
                                 0x44 (size before relaxing)
 .rodata        0x0002e552       0x20 /home/pcmonkey/altera/13.1/nios2eds/bin/gnu/H-i686-pc-linux-gnu/bin/../lib/gcc/nios2-elf/4.7.3/../../../../../H-i686-pc-linux-gnu/nios2-elf/lib/mno-hw-mul/libc.a(lib_a-vfprintf.o)
 *fill*         0x0002e572        0x2 
 .rodata.str1.4
                0x0002e574       0x10 /home/pcmonkey/altera/13.1/nios2eds/bin/gnu/H-i686-pc-linux-gnu/bin/../lib/gcc/nios2-elf/4.7.3/../../../../../H-i686-pc-linux-gnu/nios2-elf/lib/mno-hw-mul/libc.a(lib_a-dtoa.o)
                                 0x14 (size before relaxing)
 .rodata.str1.4
                0x0002e584       0x10 /home/pcmonkey/altera/13.1/nios2eds/bin/gnu/H-i686-pc-linux-gnu/bin/../lib/gcc/nios2-elf/4.7.3/../../../../../H-i686-pc-linux-gnu/nios2-elf/lib/mno-hw-mul/libc.a(lib_a-locale.o)
                                 0x18 (size before relaxing)
 .rodata        0x0002e594       0x30 /home/pcmonkey/altera/13.1/nios2eds/bin/gnu/H-i686-pc-linux-gnu/bin/../lib/gcc/nios2-elf/4.7.3/../../../../../H-i686-pc-linux-gnu/nios2-elf/lib/mno-hw-mul/libc.a(lib_a-locale.o)
 .rodata        0x0002e5c4      0x124 /home/pcmonkey/altera/13.1/nios2eds/bin/gnu/H-i686-pc-linux-gnu/bin/../lib/gcc/nios2-elf/4.7.3/../../../../../H-i686-pc-linux-gnu/nios2-elf/lib/mno-hw-mul/libc.a(lib_a-mprec.o)
                0x0002e5c4                __mprec_tinytens
                0x0002e5ec                __mprec_bigtens
                0x0002e614                __mprec_tens
 .rodata        0x0002e6e8       0x14 /home/pcmonkey/altera/13.1/nios2eds/bin/gnu/H-i686-pc-linux-gnu/bin/../lib/gcc/nios2-elf/4.7.3/mno-hw-mul/libgcc.a(_thenan_df.o)
                0x0002e6e8                __thenan_df
 .rodata        0x0002e6fc      0x100 /home/pcmonkey/altera/13.1/nios2eds/bin/gnu/H-i686-pc-linux-gnu/bin/../lib/gcc/nios2-elf/4.7.3/mno-hw-mul/libgcc.a(_clz.o)
                0x0002e6fc                __clz_tab
 .rodata        0x0002e7fc        0xc ../final_sf_bsp//libhal_bsp.a(alt_dev.o)
 .rodata        0x0002e808       0x10 ../final_sf_bsp//libhal_bsp.a(alt_main.o)
 .rodata        0x0002e818       0x28 ../final_sf_bsp//libhal_bsp.a(alt_sys_init.o)
 *(.rodata1)
                0x0002e840                . = ALIGN (0x4)
                0x0002e840                PROVIDE (__ram_rodata_end, ABSOLUTE (.))
                0x0002d648                PROVIDE (__flash_rodata_start, LOADADDR (.rodata))

.rwdata         0x0002e840      0xac0 load address 0x0002f300
                0x0002e840                PROVIDE (__ram_rwdata_start, ABSOLUTE (.))
                0x0002e840                . = ALIGN (0x4)
 *(.got.plt)
 *(.got)
 *(.data1)
 *(.data .data.* .gnu.linkonce.d.*)
 .data          0x0002e840        0x0 ../final_sf_bsp//obj/HAL/src/crt0.o
 .data          0x0002e840        0x0 obj/default/umain.o
 .data          0x0002e840        0x0 /home/pcmonkey/altera/13.1/nios2eds/bin/gnu/H-i686-pc-linux-gnu/bin/../lib/gcc/nios2-elf/4.7.3/mno-hw-mul/libgcc.a(lib2-mul.o)
 .data          0x0002e840        0x0 /home/pcmonkey/altera/13.1/nios2eds/bin/gnu/H-i686-pc-linux-gnu/bin/../lib/gcc/nios2-elf/4.7.3/../../../../../H-i686-pc-linux-gnu/nios2-elf/lib/mno-hw-mul/libc.a(lib_a-fclose.o)
 .data          0x0002e840        0x0 /home/pcmonkey/altera/13.1/nios2eds/bin/gnu/H-i686-pc-linux-gnu/bin/../lib/gcc/nios2-elf/4.7.3/../../../../../H-i686-pc-linux-gnu/nios2-elf/lib/mno-hw-mul/libc.a(lib_a-fflush.o)
 .data          0x0002e840        0x0 /home/pcmonkey/altera/13.1/nios2eds/bin/gnu/H-i686-pc-linux-gnu/bin/../lib/gcc/nios2-elf/4.7.3/../../../../../H-i686-pc-linux-gnu/nios2-elf/lib/mno-hw-mul/libc.a(lib_a-findfp.o)
 .data          0x0002e840        0x0 /home/pcmonkey/altera/13.1/nios2eds/bin/gnu/H-i686-pc-linux-gnu/bin/../lib/gcc/nios2-elf/4.7.3/../../../../../H-i686-pc-linux-gnu/nios2-elf/lib/mno-hw-mul/libc.a(lib_a-fopen.o)
 .data          0x0002e840        0x0 /home/pcmonkey/altera/13.1/nios2eds/bin/gnu/H-i686-pc-linux-gnu/bin/../lib/gcc/nios2-elf/4.7.3/../../../../../H-i686-pc-linux-gnu/nios2-elf/lib/mno-hw-mul/libc.a(lib_a-fprintf.o)
 .data          0x0002e840        0x0 /home/pcmonkey/altera/13.1/nios2eds/bin/gnu/H-i686-pc-linux-gnu/bin/../lib/gcc/nios2-elf/4.7.3/../../../../../H-i686-pc-linux-gnu/nios2-elf/lib/mno-hw-mul/libc.a(lib_a-freer.o)
 .data          0x0002e840        0x0 /home/pcmonkey/altera/13.1/nios2eds/bin/gnu/H-i686-pc-linux-gnu/bin/../lib/gcc/nios2-elf/4.7.3/../../../../../H-i686-pc-linux-gnu/nios2-elf/lib/mno-hw-mul/libc.a(lib_a-fseek.o)
 .data          0x0002e840        0x0 /home/pcmonkey/altera/13.1/nios2eds/bin/gnu/H-i686-pc-linux-gnu/bin/../lib/gcc/nios2-elf/4.7.3/../../../../../H-i686-pc-linux-gnu/nios2-elf/lib/mno-hw-mul/libc.a(lib_a-fstatr.o)
 .data          0x0002e840        0x0 /home/pcmonkey/altera/13.1/nios2eds/bin/gnu/H-i686-pc-linux-gnu/bin/../lib/gcc/nios2-elf/4.7.3/../../../../../H-i686-pc-linux-gnu/nios2-elf/lib/mno-hw-mul/libc.a(lib_a-fwalk.o)
 .data          0x0002e840      0x400 /home/pcmonkey/altera/13.1/nios2eds/bin/gnu/H-i686-pc-linux-gnu/bin/../lib/gcc/nios2-elf/4.7.3/../../../../../H-i686-pc-linux-gnu/nios2-elf/lib/mno-hw-mul/libc.a(lib_a-impure.o)
 .data          0x0002ec40        0x0 /home/pcmonkey/altera/13.1/nios2eds/bin/gnu/H-i686-pc-linux-gnu/bin/../lib/gcc/nios2-elf/4.7.3/../../../../../H-i686-pc-linux-gnu/nios2-elf/lib/mno-hw-mul/libc.a(lib_a-int_errno.o)
 .data          0x0002ec40        0x0 /home/pcmonkey/altera/13.1/nios2eds/bin/gnu/H-i686-pc-linux-gnu/bin/../lib/gcc/nios2-elf/4.7.3/../../../../../H-i686-pc-linux-gnu/nios2-elf/lib/mno-hw-mul/libc.a(lib_a-makebuf.o)
 .data          0x0002ec40      0x408 /home/pcmonkey/altera/13.1/nios2eds/bin/gnu/H-i686-pc-linux-gnu/bin/../lib/gcc/nios2-elf/4.7.3/../../../../../H-i686-pc-linux-gnu/nios2-elf/lib/mno-hw-mul/libc.a(lib_a-mallocr.o)
                0x0002ec40                __malloc_av_
 .data          0x0002f048        0x0 /home/pcmonkey/altera/13.1/nios2eds/bin/gnu/H-i686-pc-linux-gnu/bin/../lib/gcc/nios2-elf/4.7.3/../../../../../H-i686-pc-linux-gnu/nios2-elf/lib/mno-hw-mul/libc.a(lib_a-memset.o)
 .data          0x0002f048        0x0 /home/pcmonkey/altera/13.1/nios2eds/bin/gnu/H-i686-pc-linux-gnu/bin/../lib/gcc/nios2-elf/4.7.3/../../../../../H-i686-pc-linux-gnu/nios2-elf/lib/mno-hw-mul/libc.a(lib_a-openr.o)
 .data          0x0002f048        0x0 /home/pcmonkey/altera/13.1/nios2eds/bin/gnu/H-i686-pc-linux-gnu/bin/../lib/gcc/nios2-elf/4.7.3/../../../../../H-i686-pc-linux-gnu/nios2-elf/lib/mno-hw-mul/libc.a(lib_a-puts.o)
 .data          0x0002f048        0x0 /home/pcmonkey/altera/13.1/nios2eds/bin/gnu/H-i686-pc-linux-gnu/bin/../lib/gcc/nios2-elf/4.7.3/../../../../../H-i686-pc-linux-gnu/nios2-elf/lib/mno-hw-mul/libc.a(lib_a-refill.o)
 .data          0x0002f048        0x0 /home/pcmonkey/altera/13.1/nios2eds/bin/gnu/H-i686-pc-linux-gnu/bin/../lib/gcc/nios2-elf/4.7.3/../../../../../H-i686-pc-linux-gnu/nios2-elf/lib/mno-hw-mul/libc.a(lib_a-sbrkr.o)
 .data          0x0002f048        0x0 /home/pcmonkey/altera/13.1/nios2eds/bin/gnu/H-i686-pc-linux-gnu/bin/../lib/gcc/nios2-elf/4.7.3/../../../../../H-i686-pc-linux-gnu/nios2-elf/lib/mno-hw-mul/libc.a(lib_a-stdio.o)
 .data          0x0002f048        0x0 /home/pcmonkey/altera/13.1/nios2eds/bin/gnu/H-i686-pc-linux-gnu/bin/../lib/gcc/nios2-elf/4.7.3/../../../../../H-i686-pc-linux-gnu/nios2-elf/lib/mno-hw-mul/libc.a(lib_a-strlen.o)
 .data          0x0002f048        0x0 /home/pcmonkey/altera/13.1/nios2eds/bin/gnu/H-i686-pc-linux-gnu/bin/../lib/gcc/nios2-elf/4.7.3/../../../../../H-i686-pc-linux-gnu/nios2-elf/lib/mno-hw-mul/libc.a(lib_a-vfprintf.o)
 .data          0x0002f048        0x0 /home/pcmonkey/altera/13.1/nios2eds/bin/gnu/H-i686-pc-linux-gnu/bin/../lib/gcc/nios2-elf/4.7.3/../../../../../H-i686-pc-linux-gnu/nios2-elf/lib/mno-hw-mul/libc.a(lib_a-writer.o)
 .data          0x0002f048        0x0 /home/pcmonkey/altera/13.1/nios2eds/bin/gnu/H-i686-pc-linux-gnu/bin/../lib/gcc/nios2-elf/4.7.3/../../../../../H-i686-pc-linux-gnu/nios2-elf/lib/mno-hw-mul/libc.a(lib_a-wsetup.o)
 .data          0x0002f048        0x0 /home/pcmonkey/altera/13.1/nios2eds/bin/gnu/H-i686-pc-linux-gnu/bin/../lib/gcc/nios2-elf/4.7.3/../../../../../H-i686-pc-linux-gnu/nios2-elf/lib/mno-hw-mul/libc.a(lib_a-closer.o)
 .data          0x0002f048        0x0 /home/pcmonkey/altera/13.1/nios2eds/bin/gnu/H-i686-pc-linux-gnu/bin/../lib/gcc/nios2-elf/4.7.3/../../../../../H-i686-pc-linux-gnu/nios2-elf/lib/mno-hw-mul/libc.a(lib_a-dtoa.o)
 .data          0x0002f048        0x0 /home/pcmonkey/altera/13.1/nios2eds/bin/gnu/H-i686-pc-linux-gnu/bin/../lib/gcc/nios2-elf/4.7.3/../../../../../H-i686-pc-linux-gnu/nios2-elf/lib/mno-hw-mul/libc.a(lib_a-flags.o)
 .data          0x0002f048        0x0 /home/pcmonkey/altera/13.1/nios2eds/bin/gnu/H-i686-pc-linux-gnu/bin/../lib/gcc/nios2-elf/4.7.3/../../../../../H-i686-pc-linux-gnu/nios2-elf/lib/mno-hw-mul/libc.a(lib_a-fvwrite.o)
 .data          0x0002f048        0x0 /home/pcmonkey/altera/13.1/nios2eds/bin/gnu/H-i686-pc-linux-gnu/bin/../lib/gcc/nios2-elf/4.7.3/../../../../../H-i686-pc-linux-gnu/nios2-elf/lib/mno-hw-mul/libc.a(lib_a-isattyr.o)
 .data          0x0002f048        0xc /home/pcmonkey/altera/13.1/nios2eds/bin/gnu/H-i686-pc-linux-gnu/bin/../lib/gcc/nios2-elf/4.7.3/../../../../../H-i686-pc-linux-gnu/nios2-elf/lib/mno-hw-mul/libc.a(lib_a-locale.o)
                0x0002f048                __lc_ctype
 .data          0x0002f054        0x0 /home/pcmonkey/altera/13.1/nios2eds/bin/gnu/H-i686-pc-linux-gnu/bin/../lib/gcc/nios2-elf/4.7.3/../../../../../H-i686-pc-linux-gnu/nios2-elf/lib/mno-hw-mul/libc.a(lib_a-lseekr.o)
 .data          0x0002f054        0x0 /home/pcmonkey/altera/13.1/nios2eds/bin/gnu/H-i686-pc-linux-gnu/bin/../lib/gcc/nios2-elf/4.7.3/../../../../../H-i686-pc-linux-gnu/nios2-elf/lib/mno-hw-mul/libc.a(lib_a-memchr.o)
 .data          0x0002f054        0x0 /home/pcmonkey/altera/13.1/nios2eds/bin/gnu/H-i686-pc-linux-gnu/bin/../lib/gcc/nios2-elf/4.7.3/../../../../../H-i686-pc-linux-gnu/nios2-elf/lib/mno-hw-mul/libc.a(lib_a-memcpy.o)
 .data          0x0002f054        0x0 /home/pcmonkey/altera/13.1/nios2eds/bin/gnu/H-i686-pc-linux-gnu/bin/../lib/gcc/nios2-elf/4.7.3/../../../../../H-i686-pc-linux-gnu/nios2-elf/lib/mno-hw-mul/libc.a(lib_a-memmove.o)
 .data          0x0002f054        0x0 /home/pcmonkey/altera/13.1/nios2eds/bin/gnu/H-i686-pc-linux-gnu/bin/../lib/gcc/nios2-elf/4.7.3/../../../../../H-i686-pc-linux-gnu/nios2-elf/lib/mno-hw-mul/libc.a(lib_a-mprec.o)
 .data          0x0002f054        0x0 /home/pcmonkey/altera/13.1/nios2eds/bin/gnu/H-i686-pc-linux-gnu/bin/../lib/gcc/nios2-elf/4.7.3/../../../../../H-i686-pc-linux-gnu/nios2-elf/lib/mno-hw-mul/libc.a(lib_a-readr.o)
 .data          0x0002f054        0x0 /home/pcmonkey/altera/13.1/nios2eds/bin/gnu/H-i686-pc-linux-gnu/bin/../lib/gcc/nios2-elf/4.7.3/../../../../../H-i686-pc-linux-gnu/nios2-elf/lib/mno-hw-mul/libc.a(lib_a-reallocr.o)
 .data          0x0002f054        0x0 /home/pcmonkey/altera/13.1/nios2eds/bin/gnu/H-i686-pc-linux-gnu/bin/../lib/gcc/nios2-elf/4.7.3/../../../../../H-i686-pc-linux-gnu/nios2-elf/lib/mno-hw-mul/libc.a(lib_a-s_isinfd.o)
 .data          0x0002f054        0x0 /home/pcmonkey/altera/13.1/nios2eds/bin/gnu/H-i686-pc-linux-gnu/bin/../lib/gcc/nios2-elf/4.7.3/../../../../../H-i686-pc-linux-gnu/nios2-elf/lib/mno-hw-mul/libc.a(lib_a-s_isnand.o)
 .data          0x0002f054        0x0 /home/pcmonkey/altera/13.1/nios2eds/bin/gnu/H-i686-pc-linux-gnu/bin/../lib/gcc/nios2-elf/4.7.3/../../../../../H-i686-pc-linux-gnu/nios2-elf/lib/mno-hw-mul/libc.a(lib_a-strcmp.o)
 .data          0x0002f054        0x0 /home/pcmonkey/altera/13.1/nios2eds/bin/gnu/H-i686-pc-linux-gnu/bin/../lib/gcc/nios2-elf/4.7.3/../../../../../H-i686-pc-linux-gnu/nios2-elf/lib/mno-hw-mul/libc.a(lib_a-callocr.o)
 .data          0x0002f054        0x0 /home/pcmonkey/altera/13.1/nios2eds/bin/gnu/H-i686-pc-linux-gnu/bin/../lib/gcc/nios2-elf/4.7.3/mno-hw-mul/libgcc.a(_udivdi3.o)
 .data          0x0002f054        0x0 /home/pcmonkey/altera/13.1/nios2eds/bin/gnu/H-i686-pc-linux-gnu/bin/../lib/gcc/nios2-elf/4.7.3/mno-hw-mul/libgcc.a(_umoddi3.o)
 .data          0x0002f054        0x0 /home/pcmonkey/altera/13.1/nios2eds/bin/gnu/H-i686-pc-linux-gnu/bin/../lib/gcc/nios2-elf/4.7.3/mno-hw-mul/libgcc.a(_addsub_df.o)
 .data          0x0002f054        0x0 /home/pcmonkey/altera/13.1/nios2eds/bin/gnu/H-i686-pc-linux-gnu/bin/../lib/gcc/nios2-elf/4.7.3/mno-hw-mul/libgcc.a(_mul_df.o)
 .data          0x0002f054        0x0 /home/pcmonkey/altera/13.1/nios2eds/bin/gnu/H-i686-pc-linux-gnu/bin/../lib/gcc/nios2-elf/4.7.3/mno-hw-mul/libgcc.a(_div_df.o)
 .data          0x0002f054        0x0 /home/pcmonkey/altera/13.1/nios2eds/bin/gnu/H-i686-pc-linux-gnu/bin/../lib/gcc/nios2-elf/4.7.3/mno-hw-mul/libgcc.a(_eq_df.o)
 .data          0x0002f054        0x0 /home/pcmonkey/altera/13.1/nios2eds/bin/gnu/H-i686-pc-linux-gnu/bin/../lib/gcc/nios2-elf/4.7.3/mno-hw-mul/libgcc.a(_ne_df.o)
 .data          0x0002f054        0x0 /home/pcmonkey/altera/13.1/nios2eds/bin/gnu/H-i686-pc-linux-gnu/bin/../lib/gcc/nios2-elf/4.7.3/mno-hw-mul/libgcc.a(_gt_df.o)
 .data          0x0002f054        0x0 /home/pcmonkey/altera/13.1/nios2eds/bin/gnu/H-i686-pc-linux-gnu/bin/../lib/gcc/nios2-elf/4.7.3/mno-hw-mul/libgcc.a(_ge_df.o)
 .data          0x0002f054        0x0 /home/pcmonkey/altera/13.1/nios2eds/bin/gnu/H-i686-pc-linux-gnu/bin/../lib/gcc/nios2-elf/4.7.3/mno-hw-mul/libgcc.a(_lt_df.o)
 .data          0x0002f054        0x0 /home/pcmonkey/altera/13.1/nios2eds/bin/gnu/H-i686-pc-linux-gnu/bin/../lib/gcc/nios2-elf/4.7.3/mno-hw-mul/libgcc.a(_si_to_df.o)
 .data          0x0002f054        0x0 /home/pcmonkey/altera/13.1/nios2eds/bin/gnu/H-i686-pc-linux-gnu/bin/../lib/gcc/nios2-elf/4.7.3/mno-hw-mul/libgcc.a(_df_to_si.o)
 .data          0x0002f054        0x0 /home/pcmonkey/altera/13.1/nios2eds/bin/gnu/H-i686-pc-linux-gnu/bin/../lib/gcc/nios2-elf/4.7.3/mno-hw-mul/libgcc.a(_thenan_df.o)
 .data          0x0002f054        0x0 /home/pcmonkey/altera/13.1/nios2eds/bin/gnu/H-i686-pc-linux-gnu/bin/../lib/gcc/nios2-elf/4.7.3/mno-hw-mul/libgcc.a(_usi_to_df.o)
 .data          0x0002f054        0x0 /home/pcmonkey/altera/13.1/nios2eds/bin/gnu/H-i686-pc-linux-gnu/bin/../lib/gcc/nios2-elf/4.7.3/mno-hw-mul/libgcc.a(lib2-divmod.o)
 .data          0x0002f054        0x0 /home/pcmonkey/altera/13.1/nios2eds/bin/gnu/H-i686-pc-linux-gnu/bin/../lib/gcc/nios2-elf/4.7.3/mno-hw-mul/libgcc.a(_muldi3.o)
 .data          0x0002f054        0x0 /home/pcmonkey/altera/13.1/nios2eds/bin/gnu/H-i686-pc-linux-gnu/bin/../lib/gcc/nios2-elf/4.7.3/mno-hw-mul/libgcc.a(_clz.o)
 .data          0x0002f054        0x0 /home/pcmonkey/altera/13.1/nios2eds/bin/gnu/H-i686-pc-linux-gnu/bin/../lib/gcc/nios2-elf/4.7.3/mno-hw-mul/libgcc.a(_clzsi2.o)
 .data          0x0002f054        0x0 /home/pcmonkey/altera/13.1/nios2eds/bin/gnu/H-i686-pc-linux-gnu/bin/../lib/gcc/nios2-elf/4.7.3/mno-hw-mul/libgcc.a(_pack_df.o)
 .data          0x0002f054        0x0 /home/pcmonkey/altera/13.1/nios2eds/bin/gnu/H-i686-pc-linux-gnu/bin/../lib/gcc/nios2-elf/4.7.3/mno-hw-mul/libgcc.a(_unpack_df.o)
 .data          0x0002f054        0x0 /home/pcmonkey/altera/13.1/nios2eds/bin/gnu/H-i686-pc-linux-gnu/bin/../lib/gcc/nios2-elf/4.7.3/mno-hw-mul/libgcc.a(_fpcmp_parts_df.o)
 .data          0x0002f054        0x0 /home/pcmonkey/altera/13.1/nios2eds/bin/gnu/H-i686-pc-linux-gnu/bin/../lib/gcc/nios2-elf/4.7.3/mno-hw-mul/libgcc.a(_lshrdi3.o)
 .data          0x0002f054        0x0 /home/pcmonkey/altera/13.1/nios2eds/bin/gnu/H-i686-pc-linux-gnu/bin/../lib/gcc/nios2-elf/4.7.3/mno-hw-mul/libgcc.a(_ashldi3.o)
 .data          0x0002f054        0x0 ../final_sf_bsp//libhal_bsp.a(alt_close.o)
 .data          0x0002f054      0x1a8 ../final_sf_bsp//libhal_bsp.a(alt_dev.o)
                0x0002f054                alt_dev_null
                0x0002f07c                alt_fd_list
 .data          0x0002f1fc        0x0 ../final_sf_bsp//libhal_bsp.a(alt_errno.o)
 .data          0x0002f1fc        0x0 ../final_sf_bsp//libhal_bsp.a(alt_fstat.o)
 .data          0x0002f1fc        0x0 ../final_sf_bsp//libhal_bsp.a(alt_isatty.o)
 .data          0x0002f1fc        0x0 ../final_sf_bsp//libhal_bsp.a(alt_load.o)
 .data          0x0002f1fc        0x0 ../final_sf_bsp//libhal_bsp.a(alt_lseek.o)
 .data          0x0002f1fc        0x0 ../final_sf_bsp//libhal_bsp.a(alt_main.o)
 .data          0x0002f1fc        0x0 ../final_sf_bsp//libhal_bsp.a(alt_malloc_lock.o)
 .data          0x0002f1fc        0x0 ../final_sf_bsp//libhal_bsp.a(alt_open.o)
 .data          0x0002f1fc        0x0 ../final_sf_bsp//libhal_bsp.a(alt_read.o)
 .data          0x0002f1fc        0x0 ../final_sf_bsp//libhal_bsp.a(alt_release_fd.o)
 .data          0x0002f1fc        0x0 ../final_sf_bsp//libhal_bsp.a(alt_sbrk.o)
 .data          0x0002f1fc        0x0 ../final_sf_bsp//libhal_bsp.a(alt_usleep.o)
 .data          0x0002f1fc        0x0 ../final_sf_bsp//libhal_bsp.a(alt_write.o)
 .data          0x0002f1fc       0x80 ../final_sf_bsp//libhal_bsp.a(alt_sys_init.o)
 .data          0x0002f27c        0x0 ../final_sf_bsp//libhal_bsp.a(altera_avalon_jtag_uart_fd.o)
 .data          0x0002f27c        0x0 ../final_sf_bsp//libhal_bsp.a(altera_avalon_jtag_uart_read.o)
 .data          0x0002f27c        0x0 ../final_sf_bsp//libhal_bsp.a(altera_avalon_jtag_uart_write.o)
 .data          0x0002f27c        0x0 ../final_sf_bsp//libhal_bsp.a(altera_avalon_timer_sc.o)
 .data          0x0002f27c        0x0 ../final_sf_bsp//libhal_bsp.a(altera_avalon_uart_fd.o)
 .data          0x0002f27c        0x0 ../final_sf_bsp//libhal_bsp.a(altera_avalon_uart_read.o)
 .data          0x0002f27c        0x0 ../final_sf_bsp//libhal_bsp.a(altera_avalon_uart_write.o)
 .data          0x0002f27c        0x0 ../final_sf_bsp//libhal_bsp.a(altera_hostfs.o)
 .data          0x0002f27c        0x0 ../final_sf_bsp//libhal_bsp.a(alt_busy_sleep.o)
 .data          0x0002f27c        0x0 ../final_sf_bsp//libhal_bsp.a(alt_dcache_flush_all.o)
 .data          0x0002f27c        0x0 ../final_sf_bsp//libhal_bsp.a(alt_dev_llist_insert.o)
 .data          0x0002f27c        0x0 ../final_sf_bsp//libhal_bsp.a(alt_find_dev.o)
 .data          0x0002f27c        0x0 ../final_sf_bsp//libhal_bsp.a(alt_find_file.o)
 .data          0x0002f27c        0x0 ../final_sf_bsp//libhal_bsp.a(alt_fs_reg.o)
 .data          0x0002f27c        0x0 ../final_sf_bsp//libhal_bsp.a(alt_get_fd.o)
 .data          0x0002f27c        0x0 ../final_sf_bsp//libhal_bsp.a(alt_icache_flush_all.o)
 .data          0x0002f27c        0x0 ../final_sf_bsp//libhal_bsp.a(alt_iic.o)
 .data          0x0002f27c        0x0 ../final_sf_bsp//libhal_bsp.a(alt_iic_isr_register.o)
 .data          0x0002f27c        0x0 ../final_sf_bsp//libhal_bsp.a(alt_io_redirect.o)
 .data          0x0002f27c        0x0 ../final_sf_bsp//libhal_bsp.a(alt_irq_entry.o)
 .data          0x0002f27c        0x0 ../final_sf_bsp//libhal_bsp.a(alt_irq_handler.o)
 .data          0x0002f27c        0x0 ../final_sf_bsp//libhal_bsp.a(alt_irq_vars.o)
 .data          0x0002f27c        0x0 ../final_sf_bsp//libhal_bsp.a(alt_tick.o)
 .data          0x0002f27c        0x0 ../final_sf_bsp//libhal_bsp.a(altera_nios2_qsys_irq.o)
 .data          0x0002f27c        0x0 ../final_sf_bsp//libhal_bsp.a(alt_exception_entry.o)
 .data          0x0002f27c        0x0 ../final_sf_bsp//libhal_bsp.a(alt_icache_flush.o)
 .data          0x0002f27c        0x0 /home/pcmonkey/altera/13.1/nios2eds/bin/gnu/H-i686-pc-linux-gnu/bin/../lib/gcc/nios2-elf/4.7.3/../../../../../H-i686-pc-linux-gnu/nios2-elf/lib/mno-hw-mul/libc.a(lib_a-exit.o)
 .data          0x0002f27c        0x0 /home/pcmonkey/altera/13.1/nios2eds/bin/gnu/H-i686-pc-linux-gnu/bin/../lib/gcc/nios2-elf/4.7.3/../../../../../H-i686-pc-linux-gnu/nios2-elf/lib/mno-hw-mul/libc.a(lib_a-memcmp.o)
 .data          0x0002f27c        0x0 /home/pcmonkey/altera/13.1/nios2eds/bin/gnu/H-i686-pc-linux-gnu/bin/../lib/gcc/nios2-elf/4.7.3/../../../../../H-i686-pc-linux-gnu/nios2-elf/lib/mno-hw-mul/libc.a(lib_a-__call_atexit.o)
 .data          0x0002f27c        0x0 ../final_sf_bsp//libhal_bsp.a(alt_exit.o)
                0x0003727c                _gp = ABSOLUTE ((. + 0x8000))
                0x0003727c                PROVIDE (gp, _gp)
 *(.rwdata .rwdata.*)
 *(.sdata .sdata.* .gnu.linkonce.s.*)
 .sdata         0x0002f27c        0x8 /home/pcmonkey/altera/13.1/nios2eds/bin/gnu/H-i686-pc-linux-gnu/bin/../lib/gcc/nios2-elf/4.7.3/../../../../../H-i686-pc-linux-gnu/nios2-elf/lib/mno-hw-mul/libc.a(lib_a-impure.o)
                0x0002f27c                _global_impure_ptr
                0x0002f280                _impure_ptr
 .sdata         0x0002f284        0x8 /home/pcmonkey/altera/13.1/nios2eds/bin/gnu/H-i686-pc-linux-gnu/bin/../lib/gcc/nios2-elf/4.7.3/../../../../../H-i686-pc-linux-gnu/nios2-elf/lib/mno-hw-mul/libc.a(lib_a-mallocr.o)
                0x0002f284                __malloc_sbrk_base
                0x0002f288                __malloc_trim_threshold
 .sdata         0x0002f28c        0x4 /home/pcmonkey/altera/13.1/nios2eds/bin/gnu/H-i686-pc-linux-gnu/bin/../lib/gcc/nios2-elf/4.7.3/../../../../../H-i686-pc-linux-gnu/nios2-elf/lib/mno-hw-mul/libc.a(lib_a-locale.o)
                0x0002f28c                __mb_cur_max
 .sdata         0x0002f290       0x14 ../final_sf_bsp//libhal_bsp.a(alt_dev.o)
                0x0002f290                alt_fs_list
                0x0002f298                alt_dev_list
                0x0002f2a0                alt_max_fd
 .sdata         0x0002f2a4        0x4 ../final_sf_bsp//libhal_bsp.a(alt_errno.o)
                0x0002f2a4                alt_errno
 .sdata         0x0002f2a8        0x4 ../final_sf_bsp//libhal_bsp.a(alt_sbrk.o)
 .sdata         0x0002f2ac       0x48 ../final_sf_bsp//libhal_bsp.a(altera_hostfs.o)
 .sdata         0x0002f2f4        0x4 ../final_sf_bsp//libhal_bsp.a(alt_irq_vars.o)
                0x0002f2f4                alt_priority_mask
 .sdata         0x0002f2f8        0x8 ../final_sf_bsp//libhal_bsp.a(alt_tick.o)
                0x0002f2f8                alt_alarm_list
 *(.sdata2 .sdata2.* .gnu.linkonce.s2.*)
                0x0002f300                . = ALIGN (0x4)
                0x0002f300                _edata = ABSOLUTE (.)
                0x0002f300                PROVIDE (edata, ABSOLUTE (.))
                0x0002f300                PROVIDE (__ram_rwdata_end, ABSOLUTE (.))
                0x0002f300                PROVIDE (__flash_rwdata_start, LOADADDR (.rwdata))

.bss            0x0002fdc0      0x15c
                0x0002fdc0                __bss_start = ABSOLUTE (.)
                0x0002fdc0                PROVIDE (__sbss_start, ABSOLUTE (.))
                0x0002fdc0                PROVIDE (___sbss_start, ABSOLUTE (.))
 *(.dynsbss)
 *(.sbss .sbss.* .gnu.linkonce.sb.*)
 .sbss          0x0002fdc0        0x4 /home/pcmonkey/altera/13.1/nios2eds/bin/gnu/H-i686-pc-linux-gnu/bin/../lib/gcc/nios2-elf/4.7.3/../../../../../H-i686-pc-linux-gnu/nios2-elf/lib/mno-hw-mul/libc.a(lib_a-int_errno.o)
                0x0002fdc0                errno
 .sbss          0x0002fdc4        0xc /home/pcmonkey/altera/13.1/nios2eds/bin/gnu/H-i686-pc-linux-gnu/bin/../lib/gcc/nios2-elf/4.7.3/../../../../../H-i686-pc-linux-gnu/nios2-elf/lib/mno-hw-mul/libc.a(lib_a-mallocr.o)
                0x0002fdc4                __malloc_max_total_mem
                0x0002fdc8                __malloc_max_sbrked_mem
                0x0002fdcc                __malloc_top_pad
 .sbss          0x0002fdd0        0xc /home/pcmonkey/altera/13.1/nios2eds/bin/gnu/H-i686-pc-linux-gnu/bin/../lib/gcc/nios2-elf/4.7.3/../../../../../H-i686-pc-linux-gnu/nios2-elf/lib/mno-hw-mul/libc.a(lib_a-locale.o)
                0x0002fdd0                _PathLocale
                0x0002fdd4                __mlocale_changed
                0x0002fdd8                __nlocale_changed
 .sbss          0x0002fddc        0xc ../final_sf_bsp//libhal_bsp.a(alt_main.o)
                0x0002fddc                alt_argc
                0x0002fde0                alt_argv
                0x0002fde4                alt_envp
 .sbss          0x0002fde8        0x4 ../final_sf_bsp//libhal_bsp.a(alt_irq_vars.o)
                0x0002fde8                alt_irq_active
 .sbss          0x0002fdec        0x8 ../final_sf_bsp//libhal_bsp.a(alt_tick.o)
                0x0002fdec                _alt_tick_rate
                0x0002fdf0                _alt_nticks
 *(.sbss2 .sbss2.* .gnu.linkonce.sb2.*)
 *(.scommon)
                0x0002fdf4                PROVIDE (__sbss_end, ABSOLUTE (.))
                0x0002fdf4                PROVIDE (___sbss_end, ABSOLUTE (.))
 *(.dynbss)
 *(.bss .bss.* .gnu.linkonce.b.*)
 .bss           0x0002fdf4        0x0 ../final_sf_bsp//obj/HAL/src/crt0.o
 .bss           0x0002fdf4        0x0 obj/default/umain.o
 .bss           0x0002fdf4        0x0 /home/pcmonkey/altera/13.1/nios2eds/bin/gnu/H-i686-pc-linux-gnu/bin/../lib/gcc/nios2-elf/4.7.3/mno-hw-mul/libgcc.a(lib2-mul.o)
 .bss           0x0002fdf4        0x0 /home/pcmonkey/altera/13.1/nios2eds/bin/gnu/H-i686-pc-linux-gnu/bin/../lib/gcc/nios2-elf/4.7.3/../../../../../H-i686-pc-linux-gnu/nios2-elf/lib/mno-hw-mul/libc.a(lib_a-fclose.o)
 .bss           0x0002fdf4        0x0 /home/pcmonkey/altera/13.1/nios2eds/bin/gnu/H-i686-pc-linux-gnu/bin/../lib/gcc/nios2-elf/4.7.3/../../../../../H-i686-pc-linux-gnu/nios2-elf/lib/mno-hw-mul/libc.a(lib_a-fflush.o)
 .bss           0x0002fdf4        0x0 /home/pcmonkey/altera/13.1/nios2eds/bin/gnu/H-i686-pc-linux-gnu/bin/../lib/gcc/nios2-elf/4.7.3/../../../../../H-i686-pc-linux-gnu/nios2-elf/lib/mno-hw-mul/libc.a(lib_a-findfp.o)
 .bss           0x0002fdf4        0x0 /home/pcmonkey/altera/13.1/nios2eds/bin/gnu/H-i686-pc-linux-gnu/bin/../lib/gcc/nios2-elf/4.7.3/../../../../../H-i686-pc-linux-gnu/nios2-elf/lib/mno-hw-mul/libc.a(lib_a-fopen.o)
 .bss           0x0002fdf4        0x0 /home/pcmonkey/altera/13.1/nios2eds/bin/gnu/H-i686-pc-linux-gnu/bin/../lib/gcc/nios2-elf/4.7.3/../../../../../H-i686-pc-linux-gnu/nios2-elf/lib/mno-hw-mul/libc.a(lib_a-fprintf.o)
 .bss           0x0002fdf4        0x0 /home/pcmonkey/altera/13.1/nios2eds/bin/gnu/H-i686-pc-linux-gnu/bin/../lib/gcc/nios2-elf/4.7.3/../../../../../H-i686-pc-linux-gnu/nios2-elf/lib/mno-hw-mul/libc.a(lib_a-freer.o)
 .bss           0x0002fdf4        0x0 /home/pcmonkey/altera/13.1/nios2eds/bin/gnu/H-i686-pc-linux-gnu/bin/../lib/gcc/nios2-elf/4.7.3/../../../../../H-i686-pc-linux-gnu/nios2-elf/lib/mno-hw-mul/libc.a(lib_a-fseek.o)
 .bss           0x0002fdf4        0x0 /home/pcmonkey/altera/13.1/nios2eds/bin/gnu/H-i686-pc-linux-gnu/bin/../lib/gcc/nios2-elf/4.7.3/../../../../../H-i686-pc-linux-gnu/nios2-elf/lib/mno-hw-mul/libc.a(lib_a-fstatr.o)
 .bss           0x0002fdf4        0x0 /home/pcmonkey/altera/13.1/nios2eds/bin/gnu/H-i686-pc-linux-gnu/bin/../lib/gcc/nios2-elf/4.7.3/../../../../../H-i686-pc-linux-gnu/nios2-elf/lib/mno-hw-mul/libc.a(lib_a-fwalk.o)
 .bss           0x0002fdf4        0x0 /home/pcmonkey/altera/13.1/nios2eds/bin/gnu/H-i686-pc-linux-gnu/bin/../lib/gcc/nios2-elf/4.7.3/../../../../../H-i686-pc-linux-gnu/nios2-elf/lib/mno-hw-mul/libc.a(lib_a-impure.o)
 .bss           0x0002fdf4        0x0 /home/pcmonkey/altera/13.1/nios2eds/bin/gnu/H-i686-pc-linux-gnu/bin/../lib/gcc/nios2-elf/4.7.3/../../../../../H-i686-pc-linux-gnu/nios2-elf/lib/mno-hw-mul/libc.a(lib_a-int_errno.o)
 .bss           0x0002fdf4        0x0 /home/pcmonkey/altera/13.1/nios2eds/bin/gnu/H-i686-pc-linux-gnu/bin/../lib/gcc/nios2-elf/4.7.3/../../../../../H-i686-pc-linux-gnu/nios2-elf/lib/mno-hw-mul/libc.a(lib_a-makebuf.o)
 .bss           0x0002fdf4       0x28 /home/pcmonkey/altera/13.1/nios2eds/bin/gnu/H-i686-pc-linux-gnu/bin/../lib/gcc/nios2-elf/4.7.3/../../../../../H-i686-pc-linux-gnu/nios2-elf/lib/mno-hw-mul/libc.a(lib_a-mallocr.o)
                0x0002fdf4                __malloc_current_mallinfo
 .bss           0x0002fe1c        0x0 /home/pcmonkey/altera/13.1/nios2eds/bin/gnu/H-i686-pc-linux-gnu/bin/../lib/gcc/nios2-elf/4.7.3/../../../../../H-i686-pc-linux-gnu/nios2-elf/lib/mno-hw-mul/libc.a(lib_a-memset.o)
 .bss           0x0002fe1c        0x0 /home/pcmonkey/altera/13.1/nios2eds/bin/gnu/H-i686-pc-linux-gnu/bin/../lib/gcc/nios2-elf/4.7.3/../../../../../H-i686-pc-linux-gnu/nios2-elf/lib/mno-hw-mul/libc.a(lib_a-openr.o)
 .bss           0x0002fe1c        0x0 /home/pcmonkey/altera/13.1/nios2eds/bin/gnu/H-i686-pc-linux-gnu/bin/../lib/gcc/nios2-elf/4.7.3/../../../../../H-i686-pc-linux-gnu/nios2-elf/lib/mno-hw-mul/libc.a(lib_a-puts.o)
 .bss           0x0002fe1c        0x0 /home/pcmonkey/altera/13.1/nios2eds/bin/gnu/H-i686-pc-linux-gnu/bin/../lib/gcc/nios2-elf/4.7.3/../../../../../H-i686-pc-linux-gnu/nios2-elf/lib/mno-hw-mul/libc.a(lib_a-refill.o)
 .bss           0x0002fe1c        0x0 /home/pcmonkey/altera/13.1/nios2eds/bin/gnu/H-i686-pc-linux-gnu/bin/../lib/gcc/nios2-elf/4.7.3/../../../../../H-i686-pc-linux-gnu/nios2-elf/lib/mno-hw-mul/libc.a(lib_a-sbrkr.o)
 .bss           0x0002fe1c        0x0 /home/pcmonkey/altera/13.1/nios2eds/bin/gnu/H-i686-pc-linux-gnu/bin/../lib/gcc/nios2-elf/4.7.3/../../../../../H-i686-pc-linux-gnu/nios2-elf/lib/mno-hw-mul/libc.a(lib_a-stdio.o)
 .bss           0x0002fe1c        0x0 /home/pcmonkey/altera/13.1/nios2eds/bin/gnu/H-i686-pc-linux-gnu/bin/../lib/gcc/nios2-elf/4.7.3/../../../../../H-i686-pc-linux-gnu/nios2-elf/lib/mno-hw-mul/libc.a(lib_a-strlen.o)
 .bss           0x0002fe1c        0x0 /home/pcmonkey/altera/13.1/nios2eds/bin/gnu/H-i686-pc-linux-gnu/bin/../lib/gcc/nios2-elf/4.7.3/../../../../../H-i686-pc-linux-gnu/nios2-elf/lib/mno-hw-mul/libc.a(lib_a-vfprintf.o)
 .bss           0x0002fe1c        0x0 /home/pcmonkey/altera/13.1/nios2eds/bin/gnu/H-i686-pc-linux-gnu/bin/../lib/gcc/nios2-elf/4.7.3/../../../../../H-i686-pc-linux-gnu/nios2-elf/lib/mno-hw-mul/libc.a(lib_a-writer.o)
 .bss           0x0002fe1c        0x0 /home/pcmonkey/altera/13.1/nios2eds/bin/gnu/H-i686-pc-linux-gnu/bin/../lib/gcc/nios2-elf/4.7.3/../../../../../H-i686-pc-linux-gnu/nios2-elf/lib/mno-hw-mul/libc.a(lib_a-wsetup.o)
 .bss           0x0002fe1c        0x0 /home/pcmonkey/altera/13.1/nios2eds/bin/gnu/H-i686-pc-linux-gnu/bin/../lib/gcc/nios2-elf/4.7.3/../../../../../H-i686-pc-linux-gnu/nios2-elf/lib/mno-hw-mul/libc.a(lib_a-closer.o)
 .bss           0x0002fe1c        0x0 /home/pcmonkey/altera/13.1/nios2eds/bin/gnu/H-i686-pc-linux-gnu/bin/../lib/gcc/nios2-elf/4.7.3/../../../../../H-i686-pc-linux-gnu/nios2-elf/lib/mno-hw-mul/libc.a(lib_a-dtoa.o)
 .bss           0x0002fe1c        0x0 /home/pcmonkey/altera/13.1/nios2eds/bin/gnu/H-i686-pc-linux-gnu/bin/../lib/gcc/nios2-elf/4.7.3/../../../../../H-i686-pc-linux-gnu/nios2-elf/lib/mno-hw-mul/libc.a(lib_a-flags.o)
 .bss           0x0002fe1c        0x0 /home/pcmonkey/altera/13.1/nios2eds/bin/gnu/H-i686-pc-linux-gnu/bin/../lib/gcc/nios2-elf/4.7.3/../../../../../H-i686-pc-linux-gnu/nios2-elf/lib/mno-hw-mul/libc.a(lib_a-fvwrite.o)
 .bss           0x0002fe1c        0x0 /home/pcmonkey/altera/13.1/nios2eds/bin/gnu/H-i686-pc-linux-gnu/bin/../lib/gcc/nios2-elf/4.7.3/../../../../../H-i686-pc-linux-gnu/nios2-elf/lib/mno-hw-mul/libc.a(lib_a-isattyr.o)
 .bss           0x0002fe1c        0x0 /home/pcmonkey/altera/13.1/nios2eds/bin/gnu/H-i686-pc-linux-gnu/bin/../lib/gcc/nios2-elf/4.7.3/../../../../../H-i686-pc-linux-gnu/nios2-elf/lib/mno-hw-mul/libc.a(lib_a-locale.o)
 .bss           0x0002fe1c        0x0 /home/pcmonkey/altera/13.1/nios2eds/bin/gnu/H-i686-pc-linux-gnu/bin/../lib/gcc/nios2-elf/4.7.3/../../../../../H-i686-pc-linux-gnu/nios2-elf/lib/mno-hw-mul/libc.a(lib_a-lseekr.o)
 .bss           0x0002fe1c        0x0 /home/pcmonkey/altera/13.1/nios2eds/bin/gnu/H-i686-pc-linux-gnu/bin/../lib/gcc/nios2-elf/4.7.3/../../../../../H-i686-pc-linux-gnu/nios2-elf/lib/mno-hw-mul/libc.a(lib_a-memchr.o)
 .bss           0x0002fe1c        0x0 /home/pcmonkey/altera/13.1/nios2eds/bin/gnu/H-i686-pc-linux-gnu/bin/../lib/gcc/nios2-elf/4.7.3/../../../../../H-i686-pc-linux-gnu/nios2-elf/lib/mno-hw-mul/libc.a(lib_a-memcpy.o)
 .bss           0x0002fe1c        0x0 /home/pcmonkey/altera/13.1/nios2eds/bin/gnu/H-i686-pc-linux-gnu/bin/../lib/gcc/nios2-elf/4.7.3/../../../../../H-i686-pc-linux-gnu/nios2-elf/lib/mno-hw-mul/libc.a(lib_a-memmove.o)
 .bss           0x0002fe1c        0x0 /home/pcmonkey/altera/13.1/nios2eds/bin/gnu/H-i686-pc-linux-gnu/bin/../lib/gcc/nios2-elf/4.7.3/../../../../../H-i686-pc-linux-gnu/nios2-elf/lib/mno-hw-mul/libc.a(lib_a-mprec.o)
 .bss           0x0002fe1c        0x0 /home/pcmonkey/altera/13.1/nios2eds/bin/gnu/H-i686-pc-linux-gnu/bin/../lib/gcc/nios2-elf/4.7.3/../../../../../H-i686-pc-linux-gnu/nios2-elf/lib/mno-hw-mul/libc.a(lib_a-readr.o)
 .bss           0x0002fe1c        0x0 /home/pcmonkey/altera/13.1/nios2eds/bin/gnu/H-i686-pc-linux-gnu/bin/../lib/gcc/nios2-elf/4.7.3/../../../../../H-i686-pc-linux-gnu/nios2-elf/lib/mno-hw-mul/libc.a(lib_a-reallocr.o)
 .bss           0x0002fe1c        0x0 /home/pcmonkey/altera/13.1/nios2eds/bin/gnu/H-i686-pc-linux-gnu/bin/../lib/gcc/nios2-elf/4.7.3/../../../../../H-i686-pc-linux-gnu/nios2-elf/lib/mno-hw-mul/libc.a(lib_a-s_isinfd.o)
 .bss           0x0002fe1c        0x0 /home/pcmonkey/altera/13.1/nios2eds/bin/gnu/H-i686-pc-linux-gnu/bin/../lib/gcc/nios2-elf/4.7.3/../../../../../H-i686-pc-linux-gnu/nios2-elf/lib/mno-hw-mul/libc.a(lib_a-s_isnand.o)
 .bss           0x0002fe1c        0x0 /home/pcmonkey/altera/13.1/nios2eds/bin/gnu/H-i686-pc-linux-gnu/bin/../lib/gcc/nios2-elf/4.7.3/../../../../../H-i686-pc-linux-gnu/nios2-elf/lib/mno-hw-mul/libc.a(lib_a-strcmp.o)
 .bss           0x0002fe1c        0x0 /home/pcmonkey/altera/13.1/nios2eds/bin/gnu/H-i686-pc-linux-gnu/bin/../lib/gcc/nios2-elf/4.7.3/../../../../../H-i686-pc-linux-gnu/nios2-elf/lib/mno-hw-mul/libc.a(lib_a-callocr.o)
 .bss           0x0002fe1c        0x0 /home/pcmonkey/altera/13.1/nios2eds/bin/gnu/H-i686-pc-linux-gnu/bin/../lib/gcc/nios2-elf/4.7.3/mno-hw-mul/libgcc.a(_udivdi3.o)
 .bss           0x0002fe1c        0x0 /home/pcmonkey/altera/13.1/nios2eds/bin/gnu/H-i686-pc-linux-gnu/bin/../lib/gcc/nios2-elf/4.7.3/mno-hw-mul/libgcc.a(_umoddi3.o)
 .bss           0x0002fe1c        0x0 /home/pcmonkey/altera/13.1/nios2eds/bin/gnu/H-i686-pc-linux-gnu/bin/../lib/gcc/nios2-elf/4.7.3/mno-hw-mul/libgcc.a(_addsub_df.o)
 .bss           0x0002fe1c        0x0 /home/pcmonkey/altera/13.1/nios2eds/bin/gnu/H-i686-pc-linux-gnu/bin/../lib/gcc/nios2-elf/4.7.3/mno-hw-mul/libgcc.a(_mul_df.o)
 .bss           0x0002fe1c        0x0 /home/pcmonkey/altera/13.1/nios2eds/bin/gnu/H-i686-pc-linux-gnu/bin/../lib/gcc/nios2-elf/4.7.3/mno-hw-mul/libgcc.a(_div_df.o)
 .bss           0x0002fe1c        0x0 /home/pcmonkey/altera/13.1/nios2eds/bin/gnu/H-i686-pc-linux-gnu/bin/../lib/gcc/nios2-elf/4.7.3/mno-hw-mul/libgcc.a(_eq_df.o)
 .bss           0x0002fe1c        0x0 /home/pcmonkey/altera/13.1/nios2eds/bin/gnu/H-i686-pc-linux-gnu/bin/../lib/gcc/nios2-elf/4.7.3/mno-hw-mul/libgcc.a(_ne_df.o)
 .bss           0x0002fe1c        0x0 /home/pcmonkey/altera/13.1/nios2eds/bin/gnu/H-i686-pc-linux-gnu/bin/../lib/gcc/nios2-elf/4.7.3/mno-hw-mul/libgcc.a(_gt_df.o)
 .bss           0x0002fe1c        0x0 /home/pcmonkey/altera/13.1/nios2eds/bin/gnu/H-i686-pc-linux-gnu/bin/../lib/gcc/nios2-elf/4.7.3/mno-hw-mul/libgcc.a(_ge_df.o)
 .bss           0x0002fe1c        0x0 /home/pcmonkey/altera/13.1/nios2eds/bin/gnu/H-i686-pc-linux-gnu/bin/../lib/gcc/nios2-elf/4.7.3/mno-hw-mul/libgcc.a(_lt_df.o)
 .bss           0x0002fe1c        0x0 /home/pcmonkey/altera/13.1/nios2eds/bin/gnu/H-i686-pc-linux-gnu/bin/../lib/gcc/nios2-elf/4.7.3/mno-hw-mul/libgcc.a(_si_to_df.o)
 .bss           0x0002fe1c        0x0 /home/pcmonkey/altera/13.1/nios2eds/bin/gnu/H-i686-pc-linux-gnu/bin/../lib/gcc/nios2-elf/4.7.3/mno-hw-mul/libgcc.a(_df_to_si.o)
 .bss           0x0002fe1c        0x0 /home/pcmonkey/altera/13.1/nios2eds/bin/gnu/H-i686-pc-linux-gnu/bin/../lib/gcc/nios2-elf/4.7.3/mno-hw-mul/libgcc.a(_thenan_df.o)
 .bss           0x0002fe1c        0x0 /home/pcmonkey/altera/13.1/nios2eds/bin/gnu/H-i686-pc-linux-gnu/bin/../lib/gcc/nios2-elf/4.7.3/mno-hw-mul/libgcc.a(_usi_to_df.o)
 .bss           0x0002fe1c        0x0 /home/pcmonkey/altera/13.1/nios2eds/bin/gnu/H-i686-pc-linux-gnu/bin/../lib/gcc/nios2-elf/4.7.3/mno-hw-mul/libgcc.a(lib2-divmod.o)
 .bss           0x0002fe1c        0x0 /home/pcmonkey/altera/13.1/nios2eds/bin/gnu/H-i686-pc-linux-gnu/bin/../lib/gcc/nios2-elf/4.7.3/mno-hw-mul/libgcc.a(_muldi3.o)
 .bss           0x0002fe1c        0x0 /home/pcmonkey/altera/13.1/nios2eds/bin/gnu/H-i686-pc-linux-gnu/bin/../lib/gcc/nios2-elf/4.7.3/mno-hw-mul/libgcc.a(_clz.o)
 .bss           0x0002fe1c        0x0 /home/pcmonkey/altera/13.1/nios2eds/bin/gnu/H-i686-pc-linux-gnu/bin/../lib/gcc/nios2-elf/4.7.3/mno-hw-mul/libgcc.a(_clzsi2.o)
 .bss           0x0002fe1c        0x0 /home/pcmonkey/altera/13.1/nios2eds/bin/gnu/H-i686-pc-linux-gnu/bin/../lib/gcc/nios2-elf/4.7.3/mno-hw-mul/libgcc.a(_pack_df.o)
 .bss           0x0002fe1c        0x0 /home/pcmonkey/altera/13.1/nios2eds/bin/gnu/H-i686-pc-linux-gnu/bin/../lib/gcc/nios2-elf/4.7.3/mno-hw-mul/libgcc.a(_unpack_df.o)
 .bss           0x0002fe1c        0x0 /home/pcmonkey/altera/13.1/nios2eds/bin/gnu/H-i686-pc-linux-gnu/bin/../lib/gcc/nios2-elf/4.7.3/mno-hw-mul/libgcc.a(_fpcmp_parts_df.o)
 .bss           0x0002fe1c        0x0 /home/pcmonkey/altera/13.1/nios2eds/bin/gnu/H-i686-pc-linux-gnu/bin/../lib/gcc/nios2-elf/4.7.3/mno-hw-mul/libgcc.a(_lshrdi3.o)
 .bss           0x0002fe1c        0x0 /home/pcmonkey/altera/13.1/nios2eds/bin/gnu/H-i686-pc-linux-gnu/bin/../lib/gcc/nios2-elf/4.7.3/mno-hw-mul/libgcc.a(_ashldi3.o)
 .bss           0x0002fe1c        0x0 ../final_sf_bsp//libhal_bsp.a(alt_close.o)
 .bss           0x0002fe1c        0x0 ../final_sf_bsp//libhal_bsp.a(alt_dev.o)
 .bss           0x0002fe1c        0x0 ../final_sf_bsp//libhal_bsp.a(alt_errno.o)
 .bss           0x0002fe1c        0x0 ../final_sf_bsp//libhal_bsp.a(alt_fstat.o)
 .bss           0x0002fe1c        0x0 ../final_sf_bsp//libhal_bsp.a(alt_isatty.o)
 .bss           0x0002fe1c        0x0 ../final_sf_bsp//libhal_bsp.a(alt_load.o)
 .bss           0x0002fe1c        0x0 ../final_sf_bsp//libhal_bsp.a(alt_lseek.o)
 .bss           0x0002fe1c        0x0 ../final_sf_bsp//libhal_bsp.a(alt_main.o)
 .bss           0x0002fe1c        0x0 ../final_sf_bsp//libhal_bsp.a(alt_malloc_lock.o)
 .bss           0x0002fe1c        0x0 ../final_sf_bsp//libhal_bsp.a(alt_open.o)
 .bss           0x0002fe1c        0x0 ../final_sf_bsp//libhal_bsp.a(alt_read.o)
 .bss           0x0002fe1c        0x0 ../final_sf_bsp//libhal_bsp.a(alt_release_fd.o)
 .bss           0x0002fe1c        0x0 ../final_sf_bsp//libhal_bsp.a(alt_sbrk.o)
 .bss           0x0002fe1c        0x0 ../final_sf_bsp//libhal_bsp.a(alt_usleep.o)
 .bss           0x0002fe1c        0x0 ../final_sf_bsp//libhal_bsp.a(alt_write.o)
 .bss           0x0002fe1c        0x0 ../final_sf_bsp//libhal_bsp.a(alt_sys_init.o)
 .bss           0x0002fe1c        0x0 ../final_sf_bsp//libhal_bsp.a(altera_avalon_jtag_uart_fd.o)
 .bss           0x0002fe1c        0x0 ../final_sf_bsp//libhal_bsp.a(altera_avalon_jtag_uart_read.o)
 .bss           0x0002fe1c        0x0 ../final_sf_bsp//libhal_bsp.a(altera_avalon_jtag_uart_write.o)
 .bss           0x0002fe1c        0x0 ../final_sf_bsp//libhal_bsp.a(altera_avalon_timer_sc.o)
 .bss           0x0002fe1c        0x0 ../final_sf_bsp//libhal_bsp.a(altera_avalon_uart_fd.o)
 .bss           0x0002fe1c        0x0 ../final_sf_bsp//libhal_bsp.a(altera_avalon_uart_read.o)
 .bss           0x0002fe1c        0x0 ../final_sf_bsp//libhal_bsp.a(altera_avalon_uart_write.o)
 .bss           0x0002fe1c        0x0 ../final_sf_bsp//libhal_bsp.a(altera_hostfs.o)
 .bss           0x0002fe1c        0x0 ../final_sf_bsp//libhal_bsp.a(alt_busy_sleep.o)
 .bss           0x0002fe1c        0x0 ../final_sf_bsp//libhal_bsp.a(alt_dcache_flush_all.o)
 .bss           0x0002fe1c        0x0 ../final_sf_bsp//libhal_bsp.a(alt_dev_llist_insert.o)
 .bss           0x0002fe1c        0x0 ../final_sf_bsp//libhal_bsp.a(alt_find_dev.o)
 .bss           0x0002fe1c        0x0 ../final_sf_bsp//libhal_bsp.a(alt_find_file.o)
 .bss           0x0002fe1c        0x0 ../final_sf_bsp//libhal_bsp.a(alt_fs_reg.o)
 .bss           0x0002fe1c        0x0 ../final_sf_bsp//libhal_bsp.a(alt_get_fd.o)
 .bss           0x0002fe1c        0x0 ../final_sf_bsp//libhal_bsp.a(alt_icache_flush_all.o)
 .bss           0x0002fe1c        0x0 ../final_sf_bsp//libhal_bsp.a(alt_iic.o)
 .bss           0x0002fe1c        0x0 ../final_sf_bsp//libhal_bsp.a(alt_iic_isr_register.o)
 .bss           0x0002fe1c        0x0 ../final_sf_bsp//libhal_bsp.a(alt_io_redirect.o)
 .bss           0x0002fe1c        0x0 ../final_sf_bsp//libhal_bsp.a(alt_irq_entry.o)
 .bss           0x0002fe1c        0x0 ../final_sf_bsp//libhal_bsp.a(alt_irq_handler.o)
 .bss           0x0002fe1c        0x0 ../final_sf_bsp//libhal_bsp.a(alt_irq_vars.o)
 .bss           0x0002fe1c        0x0 ../final_sf_bsp//libhal_bsp.a(alt_tick.o)
 .bss           0x0002fe1c        0x0 ../final_sf_bsp//libhal_bsp.a(altera_nios2_qsys_irq.o)
 .bss           0x0002fe1c        0x0 ../final_sf_bsp//libhal_bsp.a(alt_exception_entry.o)
 .bss           0x0002fe1c        0x0 ../final_sf_bsp//libhal_bsp.a(alt_icache_flush.o)
 .bss           0x0002fe1c        0x0 /home/pcmonkey/altera/13.1/nios2eds/bin/gnu/H-i686-pc-linux-gnu/bin/../lib/gcc/nios2-elf/4.7.3/../../../../../H-i686-pc-linux-gnu/nios2-elf/lib/mno-hw-mul/libc.a(lib_a-exit.o)
 .bss           0x0002fe1c        0x0 /home/pcmonkey/altera/13.1/nios2eds/bin/gnu/H-i686-pc-linux-gnu/bin/../lib/gcc/nios2-elf/4.7.3/../../../../../H-i686-pc-linux-gnu/nios2-elf/lib/mno-hw-mul/libc.a(lib_a-memcmp.o)
 .bss           0x0002fe1c        0x0 /home/pcmonkey/altera/13.1/nios2eds/bin/gnu/H-i686-pc-linux-gnu/bin/../lib/gcc/nios2-elf/4.7.3/../../../../../H-i686-pc-linux-gnu/nios2-elf/lib/mno-hw-mul/libc.a(lib_a-__call_atexit.o)
 .bss           0x0002fe1c        0x0 ../final_sf_bsp//libhal_bsp.a(alt_exit.o)
 *(COMMON)
 COMMON         0x0002fe1c      0x100 ../final_sf_bsp//libhal_bsp.a(alt_irq_handler.o)
                0x0002fe1c                alt_irq
                0x0002ff1c                . = ALIGN (0x4)
                0x0002ff1c                __bss_end = ABSOLUTE (.)

.tightly_coupled_instruction_memory
                0x0002ff1c        0x0
                0x0002ff1c                PROVIDE (_alt_partition_tightly_coupled_instruction_memory_start, ABSOLUTE (.))
 *(.tightly_coupled_instruction_memory .tightly_coupled_instruction_memory. tightly_coupled_instruction_memory.*)
                0x0002ff1c                . = ALIGN (0x4)
                0x0002ff1c                PROVIDE (_alt_partition_tightly_coupled_instruction_memory_end, ABSOLUTE (.))
                0x0002ff1c                _end = ABSOLUTE (.)
                0x0002ff1c                end = ABSOLUTE (.)
                0x0002ff1c                __alt_stack_base = ABSOLUTE (.)
                0x0002ff1c                PROVIDE (_alt_partition_tightly_coupled_instruction_memory_load_addr, LOADADDR (.tightly_coupled_instruction_memory))

.tightly_coupled_data_memory
                0x00040000        0x0 load address 0x0002ff1c
                0x00040000                PROVIDE (_alt_partition_tightly_coupled_data_memory_start, ABSOLUTE (.))
 *(.tightly_coupled_data_memory .tightly_coupled_data_memory. tightly_coupled_data_memory.*)
                0x00040000                . = ALIGN (0x4)
                0x00040000                PROVIDE (_alt_partition_tightly_coupled_data_memory_end, ABSOLUTE (.))
                0x0002ff1c                PROVIDE (_alt_partition_tightly_coupled_data_memory_load_addr, LOADADDR (.tightly_coupled_data_memory))

.stab
 *(.stab)

.stabstr
 *(.stabstr)

.stab.excl
 *(.stab.excl)

.stab.exclstr
 *(.stab.exclstr)

.stab.index
 *(.stab.index)

.stab.indexstr
 *(.stab.indexstr)

.comment        0x00000000       0x23
 *(.comment)
 .comment       0x00000000       0x23 obj/default/umain.o
                                 0x24 (size before relaxing)
 .comment       0x00000000       0x24 /home/pcmonkey/altera/13.1/nios2eds/bin/gnu/H-i686-pc-linux-gnu/bin/../lib/gcc/nios2-elf/4.7.3/mno-hw-mul/libgcc.a(lib2-mul.o)
 .comment       0x00000000       0x24 /home/pcmonkey/altera/13.1/nios2eds/bin/gnu/H-i686-pc-linux-gnu/bin/../lib/gcc/nios2-elf/4.7.3/../../../../../H-i686-pc-linux-gnu/nios2-elf/lib/mno-hw-mul/libc.a(lib_a-fclose.o)
 .comment       0x00000000       0x24 /home/pcmonkey/altera/13.1/nios2eds/bin/gnu/H-i686-pc-linux-gnu/bin/../lib/gcc/nios2-elf/4.7.3/../../../../../H-i686-pc-linux-gnu/nios2-elf/lib/mno-hw-mul/libc.a(lib_a-fflush.o)
 .comment       0x00000000       0x24 /home/pcmonkey/altera/13.1/nios2eds/bin/gnu/H-i686-pc-linux-gnu/bin/../lib/gcc/nios2-elf/4.7.3/../../../../../H-i686-pc-linux-gnu/nios2-elf/lib/mno-hw-mul/libc.a(lib_a-findfp.o)
 .comment       0x00000000       0x24 /home/pcmonkey/altera/13.1/nios2eds/bin/gnu/H-i686-pc-linux-gnu/bin/../lib/gcc/nios2-elf/4.7.3/../../../../../H-i686-pc-linux-gnu/nios2-elf/lib/mno-hw-mul/libc.a(lib_a-fopen.o)
 .comment       0x00000000       0x24 /home/pcmonkey/altera/13.1/nios2eds/bin/gnu/H-i686-pc-linux-gnu/bin/../lib/gcc/nios2-elf/4.7.3/../../../../../H-i686-pc-linux-gnu/nios2-elf/lib/mno-hw-mul/libc.a(lib_a-fprintf.o)
 .comment       0x00000000       0x24 /home/pcmonkey/altera/13.1/nios2eds/bin/gnu/H-i686-pc-linux-gnu/bin/../lib/gcc/nios2-elf/4.7.3/../../../../../H-i686-pc-linux-gnu/nios2-elf/lib/mno-hw-mul/libc.a(lib_a-freer.o)
 .comment       0x00000000       0x24 /home/pcmonkey/altera/13.1/nios2eds/bin/gnu/H-i686-pc-linux-gnu/bin/../lib/gcc/nios2-elf/4.7.3/../../../../../H-i686-pc-linux-gnu/nios2-elf/lib/mno-hw-mul/libc.a(lib_a-fseek.o)
 .comment       0x00000000       0x24 /home/pcmonkey/altera/13.1/nios2eds/bin/gnu/H-i686-pc-linux-gnu/bin/../lib/gcc/nios2-elf/4.7.3/../../../../../H-i686-pc-linux-gnu/nios2-elf/lib/mno-hw-mul/libc.a(lib_a-fstatr.o)
 .comment       0x00000000       0x24 /home/pcmonkey/altera/13.1/nios2eds/bin/gnu/H-i686-pc-linux-gnu/bin/../lib/gcc/nios2-elf/4.7.3/../../../../../H-i686-pc-linux-gnu/nios2-elf/lib/mno-hw-mul/libc.a(lib_a-fwalk.o)
 .comment       0x00000000       0x24 /home/pcmonkey/altera/13.1/nios2eds/bin/gnu/H-i686-pc-linux-gnu/bin/../lib/gcc/nios2-elf/4.7.3/../../../../../H-i686-pc-linux-gnu/nios2-elf/lib/mno-hw-mul/libc.a(lib_a-impure.o)
 .comment       0x00000000       0x24 /home/pcmonkey/altera/13.1/nios2eds/bin/gnu/H-i686-pc-linux-gnu/bin/../lib/gcc/nios2-elf/4.7.3/../../../../../H-i686-pc-linux-gnu/nios2-elf/lib/mno-hw-mul/libc.a(lib_a-int_errno.o)
 .comment       0x00000000       0x24 /home/pcmonkey/altera/13.1/nios2eds/bin/gnu/H-i686-pc-linux-gnu/bin/../lib/gcc/nios2-elf/4.7.3/../../../../../H-i686-pc-linux-gnu/nios2-elf/lib/mno-hw-mul/libc.a(lib_a-makebuf.o)
 .comment       0x00000000       0x24 /home/pcmonkey/altera/13.1/nios2eds/bin/gnu/H-i686-pc-linux-gnu/bin/../lib/gcc/nios2-elf/4.7.3/../../../../../H-i686-pc-linux-gnu/nios2-elf/lib/mno-hw-mul/libc.a(lib_a-mallocr.o)
 .comment       0x00000000       0x24 /home/pcmonkey/altera/13.1/nios2eds/bin/gnu/H-i686-pc-linux-gnu/bin/../lib/gcc/nios2-elf/4.7.3/../../../../../H-i686-pc-linux-gnu/nios2-elf/lib/mno-hw-mul/libc.a(lib_a-memset.o)
 .comment       0x00000000       0x24 /home/pcmonkey/altera/13.1/nios2eds/bin/gnu/H-i686-pc-linux-gnu/bin/../lib/gcc/nios2-elf/4.7.3/../../../../../H-i686-pc-linux-gnu/nios2-elf/lib/mno-hw-mul/libc.a(lib_a-openr.o)
 .comment       0x00000000       0x24 /home/pcmonkey/altera/13.1/nios2eds/bin/gnu/H-i686-pc-linux-gnu/bin/../lib/gcc/nios2-elf/4.7.3/../../../../../H-i686-pc-linux-gnu/nios2-elf/lib/mno-hw-mul/libc.a(lib_a-puts.o)
 .comment       0x00000000       0x24 /home/pcmonkey/altera/13.1/nios2eds/bin/gnu/H-i686-pc-linux-gnu/bin/../lib/gcc/nios2-elf/4.7.3/../../../../../H-i686-pc-linux-gnu/nios2-elf/lib/mno-hw-mul/libc.a(lib_a-refill.o)
 .comment       0x00000000       0x24 /home/pcmonkey/altera/13.1/nios2eds/bin/gnu/H-i686-pc-linux-gnu/bin/../lib/gcc/nios2-elf/4.7.3/../../../../../H-i686-pc-linux-gnu/nios2-elf/lib/mno-hw-mul/libc.a(lib_a-sbrkr.o)
 .comment       0x00000000       0x24 /home/pcmonkey/altera/13.1/nios2eds/bin/gnu/H-i686-pc-linux-gnu/bin/../lib/gcc/nios2-elf/4.7.3/../../../../../H-i686-pc-linux-gnu/nios2-elf/lib/mno-hw-mul/libc.a(lib_a-stdio.o)
 .comment       0x00000000       0x24 /home/pcmonkey/altera/13.1/nios2eds/bin/gnu/H-i686-pc-linux-gnu/bin/../lib/gcc/nios2-elf/4.7.3/../../../../../H-i686-pc-linux-gnu/nios2-elf/lib/mno-hw-mul/libc.a(lib_a-strlen.o)
 .comment       0x00000000       0x24 /home/pcmonkey/altera/13.1/nios2eds/bin/gnu/H-i686-pc-linux-gnu/bin/../lib/gcc/nios2-elf/4.7.3/../../../../../H-i686-pc-linux-gnu/nios2-elf/lib/mno-hw-mul/libc.a(lib_a-vfprintf.o)
 .comment       0x00000000       0x24 /home/pcmonkey/altera/13.1/nios2eds/bin/gnu/H-i686-pc-linux-gnu/bin/../lib/gcc/nios2-elf/4.7.3/../../../../../H-i686-pc-linux-gnu/nios2-elf/lib/mno-hw-mul/libc.a(lib_a-writer.o)
 .comment       0x00000000       0x24 /home/pcmonkey/altera/13.1/nios2eds/bin/gnu/H-i686-pc-linux-gnu/bin/../lib/gcc/nios2-elf/4.7.3/../../../../../H-i686-pc-linux-gnu/nios2-elf/lib/mno-hw-mul/libc.a(lib_a-wsetup.o)
 .comment       0x00000000       0x24 /home/pcmonkey/altera/13.1/nios2eds/bin/gnu/H-i686-pc-linux-gnu/bin/../lib/gcc/nios2-elf/4.7.3/../../../../../H-i686-pc-linux-gnu/nios2-elf/lib/mno-hw-mul/libc.a(lib_a-closer.o)
 .comment       0x00000000       0x24 /home/pcmonkey/altera/13.1/nios2eds/bin/gnu/H-i686-pc-linux-gnu/bin/../lib/gcc/nios2-elf/4.7.3/../../../../../H-i686-pc-linux-gnu/nios2-elf/lib/mno-hw-mul/libc.a(lib_a-dtoa.o)
 .comment       0x00000000       0x24 /home/pcmonkey/altera/13.1/nios2eds/bin/gnu/H-i686-pc-linux-gnu/bin/../lib/gcc/nios2-elf/4.7.3/../../../../../H-i686-pc-linux-gnu/nios2-elf/lib/mno-hw-mul/libc.a(lib_a-flags.o)
 .comment       0x00000000       0x24 /home/pcmonkey/altera/13.1/nios2eds/bin/gnu/H-i686-pc-linux-gnu/bin/../lib/gcc/nios2-elf/4.7.3/../../../../../H-i686-pc-linux-gnu/nios2-elf/lib/mno-hw-mul/libc.a(lib_a-fvwrite.o)
 .comment       0x00000000       0x24 /home/pcmonkey/altera/13.1/nios2eds/bin/gnu/H-i686-pc-linux-gnu/bin/../lib/gcc/nios2-elf/4.7.3/../../../../../H-i686-pc-linux-gnu/nios2-elf/lib/mno-hw-mul/libc.a(lib_a-isattyr.o)
 .comment       0x00000000       0x24 /home/pcmonkey/altera/13.1/nios2eds/bin/gnu/H-i686-pc-linux-gnu/bin/../lib/gcc/nios2-elf/4.7.3/../../../../../H-i686-pc-linux-gnu/nios2-elf/lib/mno-hw-mul/libc.a(lib_a-locale.o)
 .comment       0x00000000       0x24 /home/pcmonkey/altera/13.1/nios2eds/bin/gnu/H-i686-pc-linux-gnu/bin/../lib/gcc/nios2-elf/4.7.3/../../../../../H-i686-pc-linux-gnu/nios2-elf/lib/mno-hw-mul/libc.a(lib_a-lseekr.o)
 .comment       0x00000000       0x24 /home/pcmonkey/altera/13.1/nios2eds/bin/gnu/H-i686-pc-linux-gnu/bin/../lib/gcc/nios2-elf/4.7.3/../../../../../H-i686-pc-linux-gnu/nios2-elf/lib/mno-hw-mul/libc.a(lib_a-memchr.o)
 .comment       0x00000000       0x24 /home/pcmonkey/altera/13.1/nios2eds/bin/gnu/H-i686-pc-linux-gnu/bin/../lib/gcc/nios2-elf/4.7.3/../../../../../H-i686-pc-linux-gnu/nios2-elf/lib/mno-hw-mul/libc.a(lib_a-memcpy.o)
 .comment       0x00000000       0x24 /home/pcmonkey/altera/13.1/nios2eds/bin/gnu/H-i686-pc-linux-gnu/bin/../lib/gcc/nios2-elf/4.7.3/../../../../../H-i686-pc-linux-gnu/nios2-elf/lib/mno-hw-mul/libc.a(lib_a-memmove.o)
 .comment       0x00000000       0x24 /home/pcmonkey/altera/13.1/nios2eds/bin/gnu/H-i686-pc-linux-gnu/bin/../lib/gcc/nios2-elf/4.7.3/../../../../../H-i686-pc-linux-gnu/nios2-elf/lib/mno-hw-mul/libc.a(lib_a-mprec.o)
 .comment       0x00000000       0x24 /home/pcmonkey/altera/13.1/nios2eds/bin/gnu/H-i686-pc-linux-gnu/bin/../lib/gcc/nios2-elf/4.7.3/../../../../../H-i686-pc-linux-gnu/nios2-elf/lib/mno-hw-mul/libc.a(lib_a-readr.o)
 .comment       0x00000000       0x24 /home/pcmonkey/altera/13.1/nios2eds/bin/gnu/H-i686-pc-linux-gnu/bin/../lib/gcc/nios2-elf/4.7.3/../../../../../H-i686-pc-linux-gnu/nios2-elf/lib/mno-hw-mul/libc.a(lib_a-reallocr.o)
 .comment       0x00000000       0x24 /home/pcmonkey/altera/13.1/nios2eds/bin/gnu/H-i686-pc-linux-gnu/bin/../lib/gcc/nios2-elf/4.7.3/../../../../../H-i686-pc-linux-gnu/nios2-elf/lib/mno-hw-mul/libc.a(lib_a-s_isinfd.o)
 .comment       0x00000000       0x24 /home/pcmonkey/altera/13.1/nios2eds/bin/gnu/H-i686-pc-linux-gnu/bin/../lib/gcc/nios2-elf/4.7.3/../../../../../H-i686-pc-linux-gnu/nios2-elf/lib/mno-hw-mul/libc.a(lib_a-s_isnand.o)
 .comment       0x00000000       0x24 /home/pcmonkey/altera/13.1/nios2eds/bin/gnu/H-i686-pc-linux-gnu/bin/../lib/gcc/nios2-elf/4.7.3/../../../../../H-i686-pc-linux-gnu/nios2-elf/lib/mno-hw-mul/libc.a(lib_a-strcmp.o)
 .comment       0x00000000       0x24 /home/pcmonkey/altera/13.1/nios2eds/bin/gnu/H-i686-pc-linux-gnu/bin/../lib/gcc/nios2-elf/4.7.3/../../../../../H-i686-pc-linux-gnu/nios2-elf/lib/mno-hw-mul/libc.a(lib_a-callocr.o)
 .comment       0x00000000       0x24 /home/pcmonkey/altera/13.1/nios2eds/bin/gnu/H-i686-pc-linux-gnu/bin/../lib/gcc/nios2-elf/4.7.3/mno-hw-mul/libgcc.a(_udivdi3.o)
 .comment       0x00000000       0x24 /home/pcmonkey/altera/13.1/nios2eds/bin/gnu/H-i686-pc-linux-gnu/bin/../lib/gcc/nios2-elf/4.7.3/mno-hw-mul/libgcc.a(_umoddi3.o)
 .comment       0x00000000       0x24 /home/pcmonkey/altera/13.1/nios2eds/bin/gnu/H-i686-pc-linux-gnu/bin/../lib/gcc/nios2-elf/4.7.3/mno-hw-mul/libgcc.a(_addsub_df.o)
 .comment       0x00000000       0x24 /home/pcmonkey/altera/13.1/nios2eds/bin/gnu/H-i686-pc-linux-gnu/bin/../lib/gcc/nios2-elf/4.7.3/mno-hw-mul/libgcc.a(_mul_df.o)
 .comment       0x00000000       0x24 /home/pcmonkey/altera/13.1/nios2eds/bin/gnu/H-i686-pc-linux-gnu/bin/../lib/gcc/nios2-elf/4.7.3/mno-hw-mul/libgcc.a(_div_df.o)
 .comment       0x00000000       0x24 /home/pcmonkey/altera/13.1/nios2eds/bin/gnu/H-i686-pc-linux-gnu/bin/../lib/gcc/nios2-elf/4.7.3/mno-hw-mul/libgcc.a(_eq_df.o)
 .comment       0x00000000       0x24 /home/pcmonkey/altera/13.1/nios2eds/bin/gnu/H-i686-pc-linux-gnu/bin/../lib/gcc/nios2-elf/4.7.3/mno-hw-mul/libgcc.a(_ne_df.o)
 .comment       0x00000000       0x24 /home/pcmonkey/altera/13.1/nios2eds/bin/gnu/H-i686-pc-linux-gnu/bin/../lib/gcc/nios2-elf/4.7.3/mno-hw-mul/libgcc.a(_gt_df.o)
 .comment       0x00000000       0x24 /home/pcmonkey/altera/13.1/nios2eds/bin/gnu/H-i686-pc-linux-gnu/bin/../lib/gcc/nios2-elf/4.7.3/mno-hw-mul/libgcc.a(_ge_df.o)
 .comment       0x00000000       0x24 /home/pcmonkey/altera/13.1/nios2eds/bin/gnu/H-i686-pc-linux-gnu/bin/../lib/gcc/nios2-elf/4.7.3/mno-hw-mul/libgcc.a(_lt_df.o)
 .comment       0x00000000       0x24 /home/pcmonkey/altera/13.1/nios2eds/bin/gnu/H-i686-pc-linux-gnu/bin/../lib/gcc/nios2-elf/4.7.3/mno-hw-mul/libgcc.a(_si_to_df.o)
 .comment       0x00000000       0x24 /home/pcmonkey/altera/13.1/nios2eds/bin/gnu/H-i686-pc-linux-gnu/bin/../lib/gcc/nios2-elf/4.7.3/mno-hw-mul/libgcc.a(_df_to_si.o)
 .comment       0x00000000       0x24 /home/pcmonkey/altera/13.1/nios2eds/bin/gnu/H-i686-pc-linux-gnu/bin/../lib/gcc/nios2-elf/4.7.3/mno-hw-mul/libgcc.a(_thenan_df.o)
 .comment       0x00000000       0x24 /home/pcmonkey/altera/13.1/nios2eds/bin/gnu/H-i686-pc-linux-gnu/bin/../lib/gcc/nios2-elf/4.7.3/mno-hw-mul/libgcc.a(_usi_to_df.o)
 .comment       0x00000000       0x24 /home/pcmonkey/altera/13.1/nios2eds/bin/gnu/H-i686-pc-linux-gnu/bin/../lib/gcc/nios2-elf/4.7.3/mno-hw-mul/libgcc.a(lib2-divmod.o)
 .comment       0x00000000       0x24 /home/pcmonkey/altera/13.1/nios2eds/bin/gnu/H-i686-pc-linux-gnu/bin/../lib/gcc/nios2-elf/4.7.3/mno-hw-mul/libgcc.a(_muldi3.o)
 .comment       0x00000000       0x24 /home/pcmonkey/altera/13.1/nios2eds/bin/gnu/H-i686-pc-linux-gnu/bin/../lib/gcc/nios2-elf/4.7.3/mno-hw-mul/libgcc.a(_clz.o)
 .comment       0x00000000       0x24 /home/pcmonkey/altera/13.1/nios2eds/bin/gnu/H-i686-pc-linux-gnu/bin/../lib/gcc/nios2-elf/4.7.3/mno-hw-mul/libgcc.a(_clzsi2.o)
 .comment       0x00000000       0x24 /home/pcmonkey/altera/13.1/nios2eds/bin/gnu/H-i686-pc-linux-gnu/bin/../lib/gcc/nios2-elf/4.7.3/mno-hw-mul/libgcc.a(_pack_df.o)
 .comment       0x00000000       0x24 /home/pcmonkey/altera/13.1/nios2eds/bin/gnu/H-i686-pc-linux-gnu/bin/../lib/gcc/nios2-elf/4.7.3/mno-hw-mul/libgcc.a(_unpack_df.o)
 .comment       0x00000000       0x24 /home/pcmonkey/altera/13.1/nios2eds/bin/gnu/H-i686-pc-linux-gnu/bin/../lib/gcc/nios2-elf/4.7.3/mno-hw-mul/libgcc.a(_fpcmp_parts_df.o)
 .comment       0x00000000       0x24 /home/pcmonkey/altera/13.1/nios2eds/bin/gnu/H-i686-pc-linux-gnu/bin/../lib/gcc/nios2-elf/4.7.3/mno-hw-mul/libgcc.a(_lshrdi3.o)
 .comment       0x00000000       0x24 /home/pcmonkey/altera/13.1/nios2eds/bin/gnu/H-i686-pc-linux-gnu/bin/../lib/gcc/nios2-elf/4.7.3/mno-hw-mul/libgcc.a(_ashldi3.o)
 .comment       0x00000000       0x24 ../final_sf_bsp//libhal_bsp.a(alt_close.o)
 .comment       0x00000000       0x24 ../final_sf_bsp//libhal_bsp.a(alt_dev.o)
 .comment       0x00000000       0x24 ../final_sf_bsp//libhal_bsp.a(alt_errno.o)
 .comment       0x00000000       0x24 ../final_sf_bsp//libhal_bsp.a(alt_fstat.o)
 .comment       0x00000000       0x24 ../final_sf_bsp//libhal_bsp.a(alt_isatty.o)
 .comment       0x00000000       0x24 ../final_sf_bsp//libhal_bsp.a(alt_load.o)
 .comment       0x00000000       0x24 ../final_sf_bsp//libhal_bsp.a(alt_lseek.o)
 .comment       0x00000000       0x24 ../final_sf_bsp//libhal_bsp.a(alt_main.o)
 .comment       0x00000000       0x24 ../final_sf_bsp//libhal_bsp.a(alt_malloc_lock.o)
 .comment       0x00000000       0x24 ../final_sf_bsp//libhal_bsp.a(alt_open.o)
 .comment       0x00000000       0x24 ../final_sf_bsp//libhal_bsp.a(alt_read.o)
 .comment       0x00000000       0x24 ../final_sf_bsp//libhal_bsp.a(alt_release_fd.o)
 .comment       0x00000000       0x24 ../final_sf_bsp//libhal_bsp.a(alt_sbrk.o)
 .comment       0x00000000       0x24 ../final_sf_bsp//libhal_bsp.a(alt_usleep.o)
 .comment       0x00000000       0x24 ../final_sf_bsp//libhal_bsp.a(alt_write.o)
 .comment       0x00000000       0x24 ../final_sf_bsp//libhal_bsp.a(alt_sys_init.o)
 .comment       0x00000000       0x24 ../final_sf_bsp//libhal_bsp.a(altera_avalon_jtag_uart_fd.o)
 .comment       0x00000000       0x24 ../final_sf_bsp//libhal_bsp.a(altera_avalon_jtag_uart_read.o)
 .comment       0x00000000       0x24 ../final_sf_bsp//libhal_bsp.a(altera_avalon_jtag_uart_write.o)
 .comment       0x00000000       0x24 ../final_sf_bsp//libhal_bsp.a(altera_avalon_timer_sc.o)
 .comment       0x00000000       0x24 ../final_sf_bsp//libhal_bsp.a(altera_avalon_uart_fd.o)
 .comment       0x00000000       0x24 ../final_sf_bsp//libhal_bsp.a(altera_avalon_uart_read.o)
 .comment       0x00000000       0x24 ../final_sf_bsp//libhal_bsp.a(altera_avalon_uart_write.o)
 .comment       0x00000000       0x24 ../final_sf_bsp//libhal_bsp.a(altera_hostfs.o)
 .comment       0x00000000       0x24 ../final_sf_bsp//libhal_bsp.a(alt_busy_sleep.o)
 .comment       0x00000000       0x24 ../final_sf_bsp//libhal_bsp.a(alt_dcache_flush_all.o)
 .comment       0x00000000       0x24 ../final_sf_bsp//libhal_bsp.a(alt_dev_llist_insert.o)
 .comment       0x00000000       0x24 ../final_sf_bsp//libhal_bsp.a(alt_find_dev.o)
 .comment       0x00000000       0x24 ../final_sf_bsp//libhal_bsp.a(alt_find_file.o)
 .comment       0x00000000       0x24 ../final_sf_bsp//libhal_bsp.a(alt_fs_reg.o)
 .comment       0x00000000       0x24 ../final_sf_bsp//libhal_bsp.a(alt_get_fd.o)
 .comment       0x00000000       0x24 ../final_sf_bsp//libhal_bsp.a(alt_icache_flush_all.o)
 .comment       0x00000000       0x24 ../final_sf_bsp//libhal_bsp.a(alt_iic.o)
 .comment       0x00000000       0x24 ../final_sf_bsp//libhal_bsp.a(alt_iic_isr_register.o)
 .comment       0x00000000       0x24 ../final_sf_bsp//libhal_bsp.a(alt_io_redirect.o)
 .comment       0x00000000       0x24 ../final_sf_bsp//libhal_bsp.a(alt_irq_handler.o)
 .comment       0x00000000       0x24 ../final_sf_bsp//libhal_bsp.a(alt_irq_vars.o)
 .comment       0x00000000       0x24 ../final_sf_bsp//libhal_bsp.a(alt_tick.o)
 .comment       0x00000000       0x24 ../final_sf_bsp//libhal_bsp.a(altera_nios2_qsys_irq.o)
 .comment       0x00000000       0x24 ../final_sf_bsp//libhal_bsp.a(alt_icache_flush.o)
 .comment       0x00000000       0x24 /home/pcmonkey/altera/13.1/nios2eds/bin/gnu/H-i686-pc-linux-gnu/bin/../lib/gcc/nios2-elf/4.7.3/../../../../../H-i686-pc-linux-gnu/nios2-elf/lib/mno-hw-mul/libc.a(lib_a-exit.o)
 .comment       0x00000000       0x24 /home/pcmonkey/altera/13.1/nios2eds/bin/gnu/H-i686-pc-linux-gnu/bin/../lib/gcc/nios2-elf/4.7.3/../../../../../H-i686-pc-linux-gnu/nios2-elf/lib/mno-hw-mul/libc.a(lib_a-memcmp.o)
 .comment       0x00000000       0x24 /home/pcmonkey/altera/13.1/nios2eds/bin/gnu/H-i686-pc-linux-gnu/bin/../lib/gcc/nios2-elf/4.7.3/../../../../../H-i686-pc-linux-gnu/nios2-elf/lib/mno-hw-mul/libc.a(lib_a-__call_atexit.o)
 .comment       0x00000000       0x24 ../final_sf_bsp//libhal_bsp.a(alt_exit.o)

.debug
 *(.debug)

.line
 *(.line)

.debug_srcinfo
 *(.debug_srcinfo)

.debug_sfnames
 *(.debug_sfnames)

.debug_aranges  0x00000000      0xe00
 *(.debug_aranges)
 .debug_aranges
                0x00000000       0x28 ../final_sf_bsp//obj/HAL/src/crt0.o
 .debug_aranges
                0x00000028       0x20 obj/default/umain.o
 .debug_aranges
                0x00000048       0x20 /home/pcmonkey/altera/13.1/nios2eds/bin/gnu/H-i686-pc-linux-gnu/bin/../lib/gcc/nios2-elf/4.7.3/mno-hw-mul/libgcc.a(lib2-mul.o)
 .debug_aranges
                0x00000068       0x20 /home/pcmonkey/altera/13.1/nios2eds/bin/gnu/H-i686-pc-linux-gnu/bin/../lib/gcc/nios2-elf/4.7.3/../../../../../H-i686-pc-linux-gnu/nios2-elf/lib/mno-hw-mul/libc.a(lib_a-fclose.o)
 .debug_aranges
                0x00000088       0x20 /home/pcmonkey/altera/13.1/nios2eds/bin/gnu/H-i686-pc-linux-gnu/bin/../lib/gcc/nios2-elf/4.7.3/../../../../../H-i686-pc-linux-gnu/nios2-elf/lib/mno-hw-mul/libc.a(lib_a-fflush.o)
 .debug_aranges
                0x000000a8       0x20 /home/pcmonkey/altera/13.1/nios2eds/bin/gnu/H-i686-pc-linux-gnu/bin/../lib/gcc/nios2-elf/4.7.3/../../../../../H-i686-pc-linux-gnu/nios2-elf/lib/mno-hw-mul/libc.a(lib_a-findfp.o)
 .debug_aranges
                0x000000c8       0x20 /home/pcmonkey/altera/13.1/nios2eds/bin/gnu/H-i686-pc-linux-gnu/bin/../lib/gcc/nios2-elf/4.7.3/../../../../../H-i686-pc-linux-gnu/nios2-elf/lib/mno-hw-mul/libc.a(lib_a-fopen.o)
 .debug_aranges
                0x000000e8       0x20 /home/pcmonkey/altera/13.1/nios2eds/bin/gnu/H-i686-pc-linux-gnu/bin/../lib/gcc/nios2-elf/4.7.3/../../../../../H-i686-pc-linux-gnu/nios2-elf/lib/mno-hw-mul/libc.a(lib_a-fprintf.o)
 .debug_aranges
                0x00000108       0x20 /home/pcmonkey/altera/13.1/nios2eds/bin/gnu/H-i686-pc-linux-gnu/bin/../lib/gcc/nios2-elf/4.7.3/../../../../../H-i686-pc-linux-gnu/nios2-elf/lib/mno-hw-mul/libc.a(lib_a-freer.o)
 .debug_aranges
                0x00000128       0x20 /home/pcmonkey/altera/13.1/nios2eds/bin/gnu/H-i686-pc-linux-gnu/bin/../lib/gcc/nios2-elf/4.7.3/../../../../../H-i686-pc-linux-gnu/nios2-elf/lib/mno-hw-mul/libc.a(lib_a-fseek.o)
 .debug_aranges
                0x00000148       0x20 /home/pcmonkey/altera/13.1/nios2eds/bin/gnu/H-i686-pc-linux-gnu/bin/../lib/gcc/nios2-elf/4.7.3/../../../../../H-i686-pc-linux-gnu/nios2-elf/lib/mno-hw-mul/libc.a(lib_a-fstatr.o)
 .debug_aranges
                0x00000168       0x20 /home/pcmonkey/altera/13.1/nios2eds/bin/gnu/H-i686-pc-linux-gnu/bin/../lib/gcc/nios2-elf/4.7.3/../../../../../H-i686-pc-linux-gnu/nios2-elf/lib/mno-hw-mul/libc.a(lib_a-fwalk.o)
 .debug_aranges
                0x00000188       0x18 /home/pcmonkey/altera/13.1/nios2eds/bin/gnu/H-i686-pc-linux-gnu/bin/../lib/gcc/nios2-elf/4.7.3/../../../../../H-i686-pc-linux-gnu/nios2-elf/lib/mno-hw-mul/libc.a(lib_a-impure.o)
 .debug_aranges
                0x000001a0       0x18 /home/pcmonkey/altera/13.1/nios2eds/bin/gnu/H-i686-pc-linux-gnu/bin/../lib/gcc/nios2-elf/4.7.3/../../../../../H-i686-pc-linux-gnu/nios2-elf/lib/mno-hw-mul/libc.a(lib_a-int_errno.o)
 .debug_aranges
                0x000001b8       0x20 /home/pcmonkey/altera/13.1/nios2eds/bin/gnu/H-i686-pc-linux-gnu/bin/../lib/gcc/nios2-elf/4.7.3/../../../../../H-i686-pc-linux-gnu/nios2-elf/lib/mno-hw-mul/libc.a(lib_a-makebuf.o)
 .debug_aranges
                0x000001d8       0x20 /home/pcmonkey/altera/13.1/nios2eds/bin/gnu/H-i686-pc-linux-gnu/bin/../lib/gcc/nios2-elf/4.7.3/../../../../../H-i686-pc-linux-gnu/nios2-elf/lib/mno-hw-mul/libc.a(lib_a-mallocr.o)
 .debug_aranges
                0x000001f8       0x20 /home/pcmonkey/altera/13.1/nios2eds/bin/gnu/H-i686-pc-linux-gnu/bin/../lib/gcc/nios2-elf/4.7.3/../../../../../H-i686-pc-linux-gnu/nios2-elf/lib/mno-hw-mul/libc.a(lib_a-memset.o)
 .debug_aranges
                0x00000218       0x20 /home/pcmonkey/altera/13.1/nios2eds/bin/gnu/H-i686-pc-linux-gnu/bin/../lib/gcc/nios2-elf/4.7.3/../../../../../H-i686-pc-linux-gnu/nios2-elf/lib/mno-hw-mul/libc.a(lib_a-openr.o)
 .debug_aranges
                0x00000238       0x20 /home/pcmonkey/altera/13.1/nios2eds/bin/gnu/H-i686-pc-linux-gnu/bin/../lib/gcc/nios2-elf/4.7.3/../../../../../H-i686-pc-linux-gnu/nios2-elf/lib/mno-hw-mul/libc.a(lib_a-puts.o)
 .debug_aranges
                0x00000258       0x20 /home/pcmonkey/altera/13.1/nios2eds/bin/gnu/H-i686-pc-linux-gnu/bin/../lib/gcc/nios2-elf/4.7.3/../../../../../H-i686-pc-linux-gnu/nios2-elf/lib/mno-hw-mul/libc.a(lib_a-refill.o)
 .debug_aranges
                0x00000278       0x20 /home/pcmonkey/altera/13.1/nios2eds/bin/gnu/H-i686-pc-linux-gnu/bin/../lib/gcc/nios2-elf/4.7.3/../../../../../H-i686-pc-linux-gnu/nios2-elf/lib/mno-hw-mul/libc.a(lib_a-sbrkr.o)
 .debug_aranges
                0x00000298       0x20 /home/pcmonkey/altera/13.1/nios2eds/bin/gnu/H-i686-pc-linux-gnu/bin/../lib/gcc/nios2-elf/4.7.3/../../../../../H-i686-pc-linux-gnu/nios2-elf/lib/mno-hw-mul/libc.a(lib_a-stdio.o)
 .debug_aranges
                0x000002b8       0x20 /home/pcmonkey/altera/13.1/nios2eds/bin/gnu/H-i686-pc-linux-gnu/bin/../lib/gcc/nios2-elf/4.7.3/../../../../../H-i686-pc-linux-gnu/nios2-elf/lib/mno-hw-mul/libc.a(lib_a-strlen.o)
 .debug_aranges
                0x000002d8       0x20 /home/pcmonkey/altera/13.1/nios2eds/bin/gnu/H-i686-pc-linux-gnu/bin/../lib/gcc/nios2-elf/4.7.3/../../../../../H-i686-pc-linux-gnu/nios2-elf/lib/mno-hw-mul/libc.a(lib_a-vfprintf.o)
 .debug_aranges
                0x000002f8       0x20 /home/pcmonkey/altera/13.1/nios2eds/bin/gnu/H-i686-pc-linux-gnu/bin/../lib/gcc/nios2-elf/4.7.3/../../../../../H-i686-pc-linux-gnu/nios2-elf/lib/mno-hw-mul/libc.a(lib_a-writer.o)
 .debug_aranges
                0x00000318       0x20 /home/pcmonkey/altera/13.1/nios2eds/bin/gnu/H-i686-pc-linux-gnu/bin/../lib/gcc/nios2-elf/4.7.3/../../../../../H-i686-pc-linux-gnu/nios2-elf/lib/mno-hw-mul/libc.a(lib_a-wsetup.o)
 .debug_aranges
                0x00000338       0x20 /home/pcmonkey/altera/13.1/nios2eds/bin/gnu/H-i686-pc-linux-gnu/bin/../lib/gcc/nios2-elf/4.7.3/../../../../../H-i686-pc-linux-gnu/nios2-elf/lib/mno-hw-mul/libc.a(lib_a-closer.o)
 .debug_aranges
                0x00000358       0x20 /home/pcmonkey/altera/13.1/nios2eds/bin/gnu/H-i686-pc-linux-gnu/bin/../lib/gcc/nios2-elf/4.7.3/../../../../../H-i686-pc-linux-gnu/nios2-elf/lib/mno-hw-mul/libc.a(lib_a-dtoa.o)
 .debug_aranges
                0x00000378       0x20 /home/pcmonkey/altera/13.1/nios2eds/bin/gnu/H-i686-pc-linux-gnu/bin/../lib/gcc/nios2-elf/4.7.3/../../../../../H-i686-pc-linux-gnu/nios2-elf/lib/mno-hw-mul/libc.a(lib_a-flags.o)
 .debug_aranges
                0x00000398       0x20 /home/pcmonkey/altera/13.1/nios2eds/bin/gnu/H-i686-pc-linux-gnu/bin/../lib/gcc/nios2-elf/4.7.3/../../../../../H-i686-pc-linux-gnu/nios2-elf/lib/mno-hw-mul/libc.a(lib_a-fvwrite.o)
 .debug_aranges
                0x000003b8       0x20 /home/pcmonkey/altera/13.1/nios2eds/bin/gnu/H-i686-pc-linux-gnu/bin/../lib/gcc/nios2-elf/4.7.3/../../../../../H-i686-pc-linux-gnu/nios2-elf/lib/mno-hw-mul/libc.a(lib_a-isattyr.o)
 .debug_aranges
                0x000003d8       0x20 /home/pcmonkey/altera/13.1/nios2eds/bin/gnu/H-i686-pc-linux-gnu/bin/../lib/gcc/nios2-elf/4.7.3/../../../../../H-i686-pc-linux-gnu/nios2-elf/lib/mno-hw-mul/libc.a(lib_a-locale.o)
 .debug_aranges
                0x000003f8       0x20 /home/pcmonkey/altera/13.1/nios2eds/bin/gnu/H-i686-pc-linux-gnu/bin/../lib/gcc/nios2-elf/4.7.3/../../../../../H-i686-pc-linux-gnu/nios2-elf/lib/mno-hw-mul/libc.a(lib_a-lseekr.o)
 .debug_aranges
                0x00000418       0x20 /home/pcmonkey/altera/13.1/nios2eds/bin/gnu/H-i686-pc-linux-gnu/bin/../lib/gcc/nios2-elf/4.7.3/../../../../../H-i686-pc-linux-gnu/nios2-elf/lib/mno-hw-mul/libc.a(lib_a-memchr.o)
 .debug_aranges
                0x00000438       0x20 /home/pcmonkey/altera/13.1/nios2eds/bin/gnu/H-i686-pc-linux-gnu/bin/../lib/gcc/nios2-elf/4.7.3/../../../../../H-i686-pc-linux-gnu/nios2-elf/lib/mno-hw-mul/libc.a(lib_a-memcpy.o)
 .debug_aranges
                0x00000458       0x20 /home/pcmonkey/altera/13.1/nios2eds/bin/gnu/H-i686-pc-linux-gnu/bin/../lib/gcc/nios2-elf/4.7.3/../../../../../H-i686-pc-linux-gnu/nios2-elf/lib/mno-hw-mul/libc.a(lib_a-memmove.o)
 .debug_aranges
                0x00000478       0x20 /home/pcmonkey/altera/13.1/nios2eds/bin/gnu/H-i686-pc-linux-gnu/bin/../lib/gcc/nios2-elf/4.7.3/../../../../../H-i686-pc-linux-gnu/nios2-elf/lib/mno-hw-mul/libc.a(lib_a-mprec.o)
 .debug_aranges
                0x00000498       0x20 /home/pcmonkey/altera/13.1/nios2eds/bin/gnu/H-i686-pc-linux-gnu/bin/../lib/gcc/nios2-elf/4.7.3/../../../../../H-i686-pc-linux-gnu/nios2-elf/lib/mno-hw-mul/libc.a(lib_a-readr.o)
 .debug_aranges
                0x000004b8       0x20 /home/pcmonkey/altera/13.1/nios2eds/bin/gnu/H-i686-pc-linux-gnu/bin/../lib/gcc/nios2-elf/4.7.3/../../../../../H-i686-pc-linux-gnu/nios2-elf/lib/mno-hw-mul/libc.a(lib_a-reallocr.o)
 .debug_aranges
                0x000004d8       0x20 /home/pcmonkey/altera/13.1/nios2eds/bin/gnu/H-i686-pc-linux-gnu/bin/../lib/gcc/nios2-elf/4.7.3/../../../../../H-i686-pc-linux-gnu/nios2-elf/lib/mno-hw-mul/libc.a(lib_a-s_isinfd.o)
 .debug_aranges
                0x000004f8       0x20 /home/pcmonkey/altera/13.1/nios2eds/bin/gnu/H-i686-pc-linux-gnu/bin/../lib/gcc/nios2-elf/4.7.3/../../../../../H-i686-pc-linux-gnu/nios2-elf/lib/mno-hw-mul/libc.a(lib_a-s_isnand.o)
 .debug_aranges
                0x00000518       0x20 /home/pcmonkey/altera/13.1/nios2eds/bin/gnu/H-i686-pc-linux-gnu/bin/../lib/gcc/nios2-elf/4.7.3/../../../../../H-i686-pc-linux-gnu/nios2-elf/lib/mno-hw-mul/libc.a(lib_a-strcmp.o)
 .debug_aranges
                0x00000538       0x20 /home/pcmonkey/altera/13.1/nios2eds/bin/gnu/H-i686-pc-linux-gnu/bin/../lib/gcc/nios2-elf/4.7.3/../../../../../H-i686-pc-linux-gnu/nios2-elf/lib/mno-hw-mul/libc.a(lib_a-callocr.o)
 .debug_aranges
                0x00000558       0x20 /home/pcmonkey/altera/13.1/nios2eds/bin/gnu/H-i686-pc-linux-gnu/bin/../lib/gcc/nios2-elf/4.7.3/mno-hw-mul/libgcc.a(_udivdi3.o)
 .debug_aranges
                0x00000578       0x20 /home/pcmonkey/altera/13.1/nios2eds/bin/gnu/H-i686-pc-linux-gnu/bin/../lib/gcc/nios2-elf/4.7.3/mno-hw-mul/libgcc.a(_umoddi3.o)
 .debug_aranges
                0x00000598       0x20 /home/pcmonkey/altera/13.1/nios2eds/bin/gnu/H-i686-pc-linux-gnu/bin/../lib/gcc/nios2-elf/4.7.3/mno-hw-mul/libgcc.a(_addsub_df.o)
 .debug_aranges
                0x000005b8       0x20 /home/pcmonkey/altera/13.1/nios2eds/bin/gnu/H-i686-pc-linux-gnu/bin/../lib/gcc/nios2-elf/4.7.3/mno-hw-mul/libgcc.a(_mul_df.o)
 .debug_aranges
                0x000005d8       0x20 /home/pcmonkey/altera/13.1/nios2eds/bin/gnu/H-i686-pc-linux-gnu/bin/../lib/gcc/nios2-elf/4.7.3/mno-hw-mul/libgcc.a(_div_df.o)
 .debug_aranges
                0x000005f8       0x20 /home/pcmonkey/altera/13.1/nios2eds/bin/gnu/H-i686-pc-linux-gnu/bin/../lib/gcc/nios2-elf/4.7.3/mno-hw-mul/libgcc.a(_eq_df.o)
 .debug_aranges
                0x00000618       0x20 /home/pcmonkey/altera/13.1/nios2eds/bin/gnu/H-i686-pc-linux-gnu/bin/../lib/gcc/nios2-elf/4.7.3/mno-hw-mul/libgcc.a(_ne_df.o)
 .debug_aranges
                0x00000638       0x20 /home/pcmonkey/altera/13.1/nios2eds/bin/gnu/H-i686-pc-linux-gnu/bin/../lib/gcc/nios2-elf/4.7.3/mno-hw-mul/libgcc.a(_gt_df.o)
 .debug_aranges
                0x00000658       0x20 /home/pcmonkey/altera/13.1/nios2eds/bin/gnu/H-i686-pc-linux-gnu/bin/../lib/gcc/nios2-elf/4.7.3/mno-hw-mul/libgcc.a(_ge_df.o)
 .debug_aranges
                0x00000678       0x20 /home/pcmonkey/altera/13.1/nios2eds/bin/gnu/H-i686-pc-linux-gnu/bin/../lib/gcc/nios2-elf/4.7.3/mno-hw-mul/libgcc.a(_lt_df.o)
 .debug_aranges
                0x00000698       0x20 /home/pcmonkey/altera/13.1/nios2eds/bin/gnu/H-i686-pc-linux-gnu/bin/../lib/gcc/nios2-elf/4.7.3/mno-hw-mul/libgcc.a(_si_to_df.o)
 .debug_aranges
                0x000006b8       0x20 /home/pcmonkey/altera/13.1/nios2eds/bin/gnu/H-i686-pc-linux-gnu/bin/../lib/gcc/nios2-elf/4.7.3/mno-hw-mul/libgcc.a(_df_to_si.o)
 .debug_aranges
                0x000006d8       0x18 /home/pcmonkey/altera/13.1/nios2eds/bin/gnu/H-i686-pc-linux-gnu/bin/../lib/gcc/nios2-elf/4.7.3/mno-hw-mul/libgcc.a(_thenan_df.o)
 .debug_aranges
                0x000006f0       0x20 /home/pcmonkey/altera/13.1/nios2eds/bin/gnu/H-i686-pc-linux-gnu/bin/../lib/gcc/nios2-elf/4.7.3/mno-hw-mul/libgcc.a(_usi_to_df.o)
 .debug_aranges
                0x00000710       0x20 /home/pcmonkey/altera/13.1/nios2eds/bin/gnu/H-i686-pc-linux-gnu/bin/../lib/gcc/nios2-elf/4.7.3/mno-hw-mul/libgcc.a(lib2-divmod.o)
 .debug_aranges
                0x00000730       0x20 /home/pcmonkey/altera/13.1/nios2eds/bin/gnu/H-i686-pc-linux-gnu/bin/../lib/gcc/nios2-elf/4.7.3/mno-hw-mul/libgcc.a(_muldi3.o)
 .debug_aranges
                0x00000750       0x18 /home/pcmonkey/altera/13.1/nios2eds/bin/gnu/H-i686-pc-linux-gnu/bin/../lib/gcc/nios2-elf/4.7.3/mno-hw-mul/libgcc.a(_clz.o)
 .debug_aranges
                0x00000768       0x20 /home/pcmonkey/altera/13.1/nios2eds/bin/gnu/H-i686-pc-linux-gnu/bin/../lib/gcc/nios2-elf/4.7.3/mno-hw-mul/libgcc.a(_clzsi2.o)
 .debug_aranges
                0x00000788       0x20 /home/pcmonkey/altera/13.1/nios2eds/bin/gnu/H-i686-pc-linux-gnu/bin/../lib/gcc/nios2-elf/4.7.3/mno-hw-mul/libgcc.a(_pack_df.o)
 .debug_aranges
                0x000007a8       0x20 /home/pcmonkey/altera/13.1/nios2eds/bin/gnu/H-i686-pc-linux-gnu/bin/../lib/gcc/nios2-elf/4.7.3/mno-hw-mul/libgcc.a(_unpack_df.o)
 .debug_aranges
                0x000007c8       0x20 /home/pcmonkey/altera/13.1/nios2eds/bin/gnu/H-i686-pc-linux-gnu/bin/../lib/gcc/nios2-elf/4.7.3/mno-hw-mul/libgcc.a(_fpcmp_parts_df.o)
 .debug_aranges
                0x000007e8       0x20 /home/pcmonkey/altera/13.1/nios2eds/bin/gnu/H-i686-pc-linux-gnu/bin/../lib/gcc/nios2-elf/4.7.3/mno-hw-mul/libgcc.a(_lshrdi3.o)
 .debug_aranges
                0x00000808       0x20 /home/pcmonkey/altera/13.1/nios2eds/bin/gnu/H-i686-pc-linux-gnu/bin/../lib/gcc/nios2-elf/4.7.3/mno-hw-mul/libgcc.a(_ashldi3.o)
 .debug_aranges
                0x00000828       0x20 ../final_sf_bsp//libhal_bsp.a(alt_close.o)
 .debug_aranges
                0x00000848       0x20 ../final_sf_bsp//libhal_bsp.a(alt_dev.o)
 .debug_aranges
                0x00000868       0x18 ../final_sf_bsp//libhal_bsp.a(alt_errno.o)
 .debug_aranges
                0x00000880       0x20 ../final_sf_bsp//libhal_bsp.a(alt_fstat.o)
 .debug_aranges
                0x000008a0       0x20 ../final_sf_bsp//libhal_bsp.a(alt_isatty.o)
 .debug_aranges
                0x000008c0       0x20 ../final_sf_bsp//libhal_bsp.a(alt_load.o)
 .debug_aranges
                0x000008e0       0x20 ../final_sf_bsp//libhal_bsp.a(alt_lseek.o)
 .debug_aranges
                0x00000900       0x20 ../final_sf_bsp//libhal_bsp.a(alt_main.o)
 .debug_aranges
                0x00000920       0x20 ../final_sf_bsp//libhal_bsp.a(alt_malloc_lock.o)
 .debug_aranges
                0x00000940       0x20 ../final_sf_bsp//libhal_bsp.a(alt_open.o)
 .debug_aranges
                0x00000960       0x20 ../final_sf_bsp//libhal_bsp.a(alt_read.o)
 .debug_aranges
                0x00000980       0x20 ../final_sf_bsp//libhal_bsp.a(alt_release_fd.o)
 .debug_aranges
                0x000009a0       0x20 ../final_sf_bsp//libhal_bsp.a(alt_sbrk.o)
 .debug_aranges
                0x000009c0       0x20 ../final_sf_bsp//libhal_bsp.a(alt_usleep.o)
 .debug_aranges
                0x000009e0       0x20 ../final_sf_bsp//libhal_bsp.a(alt_write.o)
 .debug_aranges
                0x00000a00       0x20 ../final_sf_bsp//libhal_bsp.a(alt_sys_init.o)
 .debug_aranges
                0x00000a20       0x20 ../final_sf_bsp//libhal_bsp.a(altera_avalon_jtag_uart_fd.o)
 .debug_aranges
                0x00000a40       0x20 ../final_sf_bsp//libhal_bsp.a(altera_avalon_jtag_uart_read.o)
 .debug_aranges
                0x00000a60       0x20 ../final_sf_bsp//libhal_bsp.a(altera_avalon_jtag_uart_write.o)
 .debug_aranges
                0x00000a80       0x20 ../final_sf_bsp//libhal_bsp.a(altera_avalon_timer_sc.o)
 .debug_aranges
                0x00000aa0       0x20 ../final_sf_bsp//libhal_bsp.a(altera_avalon_uart_fd.o)
 .debug_aranges
                0x00000ac0       0x20 ../final_sf_bsp//libhal_bsp.a(altera_avalon_uart_read.o)
 .debug_aranges
                0x00000ae0       0x20 ../final_sf_bsp//libhal_bsp.a(altera_avalon_uart_write.o)
 .debug_aranges
                0x00000b00       0x20 ../final_sf_bsp//libhal_bsp.a(altera_hostfs.o)
 .debug_aranges
                0x00000b20       0x20 ../final_sf_bsp//libhal_bsp.a(alt_busy_sleep.o)
 .debug_aranges
                0x00000b40       0x20 ../final_sf_bsp//libhal_bsp.a(alt_dcache_flush_all.o)
 .debug_aranges
                0x00000b60       0x20 ../final_sf_bsp//libhal_bsp.a(alt_dev_llist_insert.o)
 .debug_aranges
                0x00000b80       0x20 ../final_sf_bsp//libhal_bsp.a(alt_find_dev.o)
 .debug_aranges
                0x00000ba0       0x20 ../final_sf_bsp//libhal_bsp.a(alt_find_file.o)
 .debug_aranges
                0x00000bc0       0x20 ../final_sf_bsp//libhal_bsp.a(alt_fs_reg.o)
 .debug_aranges
                0x00000be0       0x20 ../final_sf_bsp//libhal_bsp.a(alt_get_fd.o)
 .debug_aranges
                0x00000c00       0x20 ../final_sf_bsp//libhal_bsp.a(alt_icache_flush_all.o)
 .debug_aranges
                0x00000c20       0x20 ../final_sf_bsp//libhal_bsp.a(alt_iic.o)
 .debug_aranges
                0x00000c40       0x20 ../final_sf_bsp//libhal_bsp.a(alt_iic_isr_register.o)
 .debug_aranges
                0x00000c60       0x20 ../final_sf_bsp//libhal_bsp.a(alt_io_redirect.o)
 .debug_aranges
                0x00000c80       0x30 ../final_sf_bsp//libhal_bsp.a(alt_irq_entry.o)
 .debug_aranges
                0x00000cb0       0x20 ../final_sf_bsp//libhal_bsp.a(alt_irq_handler.o)
 .debug_aranges
                0x00000cd0       0x18 ../final_sf_bsp//libhal_bsp.a(alt_irq_vars.o)
 .debug_aranges
                0x00000ce8       0x20 ../final_sf_bsp//libhal_bsp.a(alt_tick.o)
 .debug_aranges
                0x00000d08       0x20 ../final_sf_bsp//libhal_bsp.a(altera_nios2_qsys_irq.o)
 .debug_aranges
                0x00000d28       0x38 ../final_sf_bsp//libhal_bsp.a(alt_exception_entry.o)
 .debug_aranges
                0x00000d60       0x20 ../final_sf_bsp//libhal_bsp.a(alt_icache_flush.o)
 .debug_aranges
                0x00000d80       0x20 /home/pcmonkey/altera/13.1/nios2eds/bin/gnu/H-i686-pc-linux-gnu/bin/../lib/gcc/nios2-elf/4.7.3/../../../../../H-i686-pc-linux-gnu/nios2-elf/lib/mno-hw-mul/libc.a(lib_a-exit.o)
 .debug_aranges
                0x00000da0       0x20 /home/pcmonkey/altera/13.1/nios2eds/bin/gnu/H-i686-pc-linux-gnu/bin/../lib/gcc/nios2-elf/4.7.3/../../../../../H-i686-pc-linux-gnu/nios2-elf/lib/mno-hw-mul/libc.a(lib_a-memcmp.o)
 .debug_aranges
                0x00000dc0       0x20 /home/pcmonkey/altera/13.1/nios2eds/bin/gnu/H-i686-pc-linux-gnu/bin/../lib/gcc/nios2-elf/4.7.3/../../../../../H-i686-pc-linux-gnu/nios2-elf/lib/mno-hw-mul/libc.a(lib_a-__call_atexit.o)
 .debug_aranges
                0x00000de0       0x20 ../final_sf_bsp//libhal_bsp.a(alt_exit.o)

.debug_pubnames
 *(.debug_pubnames)

.debug_info     0x00000000    0x2635d
 *(.debug_info .gnu.linkonce.wi.*)
 .debug_info    0x00000000       0x68 ../final_sf_bsp//obj/HAL/src/crt0.o
 .debug_info    0x00000068      0xafa obj/default/umain.o
 .debug_info    0x00000b62       0xb8 /home/pcmonkey/altera/13.1/nios2eds/bin/gnu/H-i686-pc-linux-gnu/bin/../lib/gcc/nios2-elf/4.7.3/mno-hw-mul/libgcc.a(lib2-mul.o)
 .debug_info    0x00000c1a      0xa97 /home/pcmonkey/altera/13.1/nios2eds/bin/gnu/H-i686-pc-linux-gnu/bin/../lib/gcc/nios2-elf/4.7.3/../../../../../H-i686-pc-linux-gnu/nios2-elf/lib/mno-hw-mul/libc.a(lib_a-fclose.o)
 .debug_info    0x000016b1      0xad0 /home/pcmonkey/altera/13.1/nios2eds/bin/gnu/H-i686-pc-linux-gnu/bin/../lib/gcc/nios2-elf/4.7.3/../../../../../H-i686-pc-linux-gnu/nios2-elf/lib/mno-hw-mul/libc.a(lib_a-fflush.o)
 .debug_info    0x00002181      0xd6e /home/pcmonkey/altera/13.1/nios2eds/bin/gnu/H-i686-pc-linux-gnu/bin/../lib/gcc/nios2-elf/4.7.3/../../../../../H-i686-pc-linux-gnu/nios2-elf/lib/mno-hw-mul/libc.a(lib_a-findfp.o)
 .debug_info    0x00002eef      0xb24 /home/pcmonkey/altera/13.1/nios2eds/bin/gnu/H-i686-pc-linux-gnu/bin/../lib/gcc/nios2-elf/4.7.3/../../../../../H-i686-pc-linux-gnu/nios2-elf/lib/mno-hw-mul/libc.a(lib_a-fopen.o)
 .debug_info    0x00003a13      0xa4b /home/pcmonkey/altera/13.1/nios2eds/bin/gnu/H-i686-pc-linux-gnu/bin/../lib/gcc/nios2-elf/4.7.3/../../../../../H-i686-pc-linux-gnu/nios2-elf/lib/mno-hw-mul/libc.a(lib_a-fprintf.o)
 .debug_info    0x0000445e      0xcf9 /home/pcmonkey/altera/13.1/nios2eds/bin/gnu/H-i686-pc-linux-gnu/bin/../lib/gcc/nios2-elf/4.7.3/../../../../../H-i686-pc-linux-gnu/nios2-elf/lib/mno-hw-mul/libc.a(lib_a-freer.o)
 .debug_info    0x00005157      0xe08 /home/pcmonkey/altera/13.1/nios2eds/bin/gnu/H-i686-pc-linux-gnu/bin/../lib/gcc/nios2-elf/4.7.3/../../../../../H-i686-pc-linux-gnu/nios2-elf/lib/mno-hw-mul/libc.a(lib_a-fseek.o)
 .debug_info    0x00005f5f      0xb2f /home/pcmonkey/altera/13.1/nios2eds/bin/gnu/H-i686-pc-linux-gnu/bin/../lib/gcc/nios2-elf/4.7.3/../../../../../H-i686-pc-linux-gnu/nios2-elf/lib/mno-hw-mul/libc.a(lib_a-fstatr.o)
 .debug_info    0x00006a8e      0xb72 /home/pcmonkey/altera/13.1/nios2eds/bin/gnu/H-i686-pc-linux-gnu/bin/../lib/gcc/nios2-elf/4.7.3/../../../../../H-i686-pc-linux-gnu/nios2-elf/lib/mno-hw-mul/libc.a(lib_a-fwalk.o)
 .debug_info    0x00007600      0x938 /home/pcmonkey/altera/13.1/nios2eds/bin/gnu/H-i686-pc-linux-gnu/bin/../lib/gcc/nios2-elf/4.7.3/../../../../../H-i686-pc-linux-gnu/nios2-elf/lib/mno-hw-mul/libc.a(lib_a-impure.o)
 .debug_info    0x00007f38       0x84 /home/pcmonkey/altera/13.1/nios2eds/bin/gnu/H-i686-pc-linux-gnu/bin/../lib/gcc/nios2-elf/4.7.3/../../../../../H-i686-pc-linux-gnu/nios2-elf/lib/mno-hw-mul/libc.a(lib_a-int_errno.o)
 .debug_info    0x00007fbc      0xbc2 /home/pcmonkey/altera/13.1/nios2eds/bin/gnu/H-i686-pc-linux-gnu/bin/../lib/gcc/nios2-elf/4.7.3/../../../../../H-i686-pc-linux-gnu/nios2-elf/lib/mno-hw-mul/libc.a(lib_a-makebuf.o)
 .debug_info    0x00008b7e      0xe44 /home/pcmonkey/altera/13.1/nios2eds/bin/gnu/H-i686-pc-linux-gnu/bin/../lib/gcc/nios2-elf/4.7.3/../../../../../H-i686-pc-linux-gnu/nios2-elf/lib/mno-hw-mul/libc.a(lib_a-mallocr.o)
 .debug_info    0x000099c2      0x117 /home/pcmonkey/altera/13.1/nios2eds/bin/gnu/H-i686-pc-linux-gnu/bin/../lib/gcc/nios2-elf/4.7.3/../../../../../H-i686-pc-linux-gnu/nios2-elf/lib/mno-hw-mul/libc.a(lib_a-memset.o)
 .debug_info    0x00009ad9      0x9b2 /home/pcmonkey/altera/13.1/nios2eds/bin/gnu/H-i686-pc-linux-gnu/bin/../lib/gcc/nios2-elf/4.7.3/../../../../../H-i686-pc-linux-gnu/nios2-elf/lib/mno-hw-mul/libc.a(lib_a-openr.o)
 .debug_info    0x0000a48b      0xab7 /home/pcmonkey/altera/13.1/nios2eds/bin/gnu/H-i686-pc-linux-gnu/bin/../lib/gcc/nios2-elf/4.7.3/../../../../../H-i686-pc-linux-gnu/nios2-elf/lib/mno-hw-mul/libc.a(lib_a-puts.o)
 .debug_info    0x0000af42      0xab8 /home/pcmonkey/altera/13.1/nios2eds/bin/gnu/H-i686-pc-linux-gnu/bin/../lib/gcc/nios2-elf/4.7.3/../../../../../H-i686-pc-linux-gnu/nios2-elf/lib/mno-hw-mul/libc.a(lib_a-refill.o)
 .debug_info    0x0000b9fa      0x9a3 /home/pcmonkey/altera/13.1/nios2eds/bin/gnu/H-i686-pc-linux-gnu/bin/../lib/gcc/nios2-elf/4.7.3/../../../../../H-i686-pc-linux-gnu/nios2-elf/lib/mno-hw-mul/libc.a(lib_a-sbrkr.o)
 .debug_info    0x0000c39d      0xbfd /home/pcmonkey/altera/13.1/nios2eds/bin/gnu/H-i686-pc-linux-gnu/bin/../lib/gcc/nios2-elf/4.7.3/../../../../../H-i686-pc-linux-gnu/nios2-elf/lib/mno-hw-mul/libc.a(lib_a-stdio.o)
 .debug_info    0x0000cf9a       0xdf /home/pcmonkey/altera/13.1/nios2eds/bin/gnu/H-i686-pc-linux-gnu/bin/../lib/gcc/nios2-elf/4.7.3/../../../../../H-i686-pc-linux-gnu/nios2-elf/lib/mno-hw-mul/libc.a(lib_a-strlen.o)
 .debug_info    0x0000d079     0x195a /home/pcmonkey/altera/13.1/nios2eds/bin/gnu/H-i686-pc-linux-gnu/bin/../lib/gcc/nios2-elf/4.7.3/../../../../../H-i686-pc-linux-gnu/nios2-elf/lib/mno-hw-mul/libc.a(lib_a-vfprintf.o)
 .debug_info    0x0000e9d3      0x9d2 /home/pcmonkey/altera/13.1/nios2eds/bin/gnu/H-i686-pc-linux-gnu/bin/../lib/gcc/nios2-elf/4.7.3/../../../../../H-i686-pc-linux-gnu/nios2-elf/lib/mno-hw-mul/libc.a(lib_a-writer.o)
 .debug_info    0x0000f3a5      0x9d4 /home/pcmonkey/altera/13.1/nios2eds/bin/gnu/H-i686-pc-linux-gnu/bin/../lib/gcc/nios2-elf/4.7.3/../../../../../H-i686-pc-linux-gnu/nios2-elf/lib/mno-hw-mul/libc.a(lib_a-wsetup.o)
 .debug_info    0x0000fd79      0x97f /home/pcmonkey/altera/13.1/nios2eds/bin/gnu/H-i686-pc-linux-gnu/bin/../lib/gcc/nios2-elf/4.7.3/../../../../../H-i686-pc-linux-gnu/nios2-elf/lib/mno-hw-mul/libc.a(lib_a-closer.o)
 .debug_info    0x000106f8     0x1409 /home/pcmonkey/altera/13.1/nios2eds/bin/gnu/H-i686-pc-linux-gnu/bin/../lib/gcc/nios2-elf/4.7.3/../../../../../H-i686-pc-linux-gnu/nios2-elf/lib/mno-hw-mul/libc.a(lib_a-dtoa.o)
 .debug_info    0x00011b01      0x97a /home/pcmonkey/altera/13.1/nios2eds/bin/gnu/H-i686-pc-linux-gnu/bin/../lib/gcc/nios2-elf/4.7.3/../../../../../H-i686-pc-linux-gnu/nios2-elf/lib/mno-hw-mul/libc.a(lib_a-flags.o)
 .debug_info    0x0001247b      0xd05 /home/pcmonkey/altera/13.1/nios2eds/bin/gnu/H-i686-pc-linux-gnu/bin/../lib/gcc/nios2-elf/4.7.3/../../../../../H-i686-pc-linux-gnu/nios2-elf/lib/mno-hw-mul/libc.a(lib_a-fvwrite.o)
 .debug_info    0x00013180      0x97f /home/pcmonkey/altera/13.1/nios2eds/bin/gnu/H-i686-pc-linux-gnu/bin/../lib/gcc/nios2-elf/4.7.3/../../../../../H-i686-pc-linux-gnu/nios2-elf/lib/mno-hw-mul/libc.a(lib_a-isattyr.o)
 .debug_info    0x00013aff      0xc10 /home/pcmonkey/altera/13.1/nios2eds/bin/gnu/H-i686-pc-linux-gnu/bin/../lib/gcc/nios2-elf/4.7.3/../../../../../H-i686-pc-linux-gnu/nios2-elf/lib/mno-hw-mul/libc.a(lib_a-locale.o)
 .debug_info    0x0001470f      0x9cb /home/pcmonkey/altera/13.1/nios2eds/bin/gnu/H-i686-pc-linux-gnu/bin/../lib/gcc/nios2-elf/4.7.3/../../../../../H-i686-pc-linux-gnu/nios2-elf/lib/mno-hw-mul/libc.a(lib_a-lseekr.o)
 .debug_info    0x000150da      0x13e /home/pcmonkey/altera/13.1/nios2eds/bin/gnu/H-i686-pc-linux-gnu/bin/../lib/gcc/nios2-elf/4.7.3/../../../../../H-i686-pc-linux-gnu/nios2-elf/lib/mno-hw-mul/libc.a(lib_a-memchr.o)
 .debug_info    0x00015218      0x10f /home/pcmonkey/altera/13.1/nios2eds/bin/gnu/H-i686-pc-linux-gnu/bin/../lib/gcc/nios2-elf/4.7.3/../../../../../H-i686-pc-linux-gnu/nios2-elf/lib/mno-hw-mul/libc.a(lib_a-memcpy.o)
 .debug_info    0x00015327      0x147 /home/pcmonkey/altera/13.1/nios2eds/bin/gnu/H-i686-pc-linux-gnu/bin/../lib/gcc/nios2-elf/4.7.3/../../../../../H-i686-pc-linux-gnu/nios2-elf/lib/mno-hw-mul/libc.a(lib_a-memmove.o)
 .debug_info    0x0001546e     0x1734 /home/pcmonkey/altera/13.1/nios2eds/bin/gnu/H-i686-pc-linux-gnu/bin/../lib/gcc/nios2-elf/4.7.3/../../../../../H-i686-pc-linux-gnu/nios2-elf/lib/mno-hw-mul/libc.a(lib_a-mprec.o)
 .debug_info    0x00016ba2      0x9cb /home/pcmonkey/altera/13.1/nios2eds/bin/gnu/H-i686-pc-linux-gnu/bin/../lib/gcc/nios2-elf/4.7.3/../../../../../H-i686-pc-linux-gnu/nios2-elf/lib/mno-hw-mul/libc.a(lib_a-readr.o)
 .debug_info    0x0001756d      0xd8e /home/pcmonkey/altera/13.1/nios2eds/bin/gnu/H-i686-pc-linux-gnu/bin/../lib/gcc/nios2-elf/4.7.3/../../../../../H-i686-pc-linux-gnu/nios2-elf/lib/mno-hw-mul/libc.a(lib_a-reallocr.o)
 .debug_info    0x000182fb       0xe8 /home/pcmonkey/altera/13.1/nios2eds/bin/gnu/H-i686-pc-linux-gnu/bin/../lib/gcc/nios2-elf/4.7.3/../../../../../H-i686-pc-linux-gnu/nios2-elf/lib/mno-hw-mul/libc.a(lib_a-s_isinfd.o)
 .debug_info    0x000183e3       0xe8 /home/pcmonkey/altera/13.1/nios2eds/bin/gnu/H-i686-pc-linux-gnu/bin/../lib/gcc/nios2-elf/4.7.3/../../../../../H-i686-pc-linux-gnu/nios2-elf/lib/mno-hw-mul/libc.a(lib_a-s_isnand.o)
 .debug_info    0x000184cb       0xe1 /home/pcmonkey/altera/13.1/nios2eds/bin/gnu/H-i686-pc-linux-gnu/bin/../lib/gcc/nios2-elf/4.7.3/../../../../../H-i686-pc-linux-gnu/nios2-elf/lib/mno-hw-mul/libc.a(lib_a-strcmp.o)
 .debug_info    0x000185ac      0xa8b /home/pcmonkey/altera/13.1/nios2eds/bin/gnu/H-i686-pc-linux-gnu/bin/../lib/gcc/nios2-elf/4.7.3/../../../../../H-i686-pc-linux-gnu/nios2-elf/lib/mno-hw-mul/libc.a(lib_a-callocr.o)
 .debug_info    0x00019037      0x71c /home/pcmonkey/altera/13.1/nios2eds/bin/gnu/H-i686-pc-linux-gnu/bin/../lib/gcc/nios2-elf/4.7.3/mno-hw-mul/libgcc.a(_udivdi3.o)
 .debug_info    0x00019753      0x773 /home/pcmonkey/altera/13.1/nios2eds/bin/gnu/H-i686-pc-linux-gnu/bin/../lib/gcc/nios2-elf/4.7.3/mno-hw-mul/libgcc.a(_umoddi3.o)
 .debug_info    0x00019ec6      0x588 /home/pcmonkey/altera/13.1/nios2eds/bin/gnu/H-i686-pc-linux-gnu/bin/../lib/gcc/nios2-elf/4.7.3/mno-hw-mul/libgcc.a(_addsub_df.o)
 .debug_info    0x0001a44e      0x519 /home/pcmonkey/altera/13.1/nios2eds/bin/gnu/H-i686-pc-linux-gnu/bin/../lib/gcc/nios2-elf/4.7.3/mno-hw-mul/libgcc.a(_mul_df.o)
 .debug_info    0x0001a967      0x443 /home/pcmonkey/altera/13.1/nios2eds/bin/gnu/H-i686-pc-linux-gnu/bin/../lib/gcc/nios2-elf/4.7.3/mno-hw-mul/libgcc.a(_div_df.o)
 .debug_info    0x0001adaa      0x320 /home/pcmonkey/altera/13.1/nios2eds/bin/gnu/H-i686-pc-linux-gnu/bin/../lib/gcc/nios2-elf/4.7.3/mno-hw-mul/libgcc.a(_eq_df.o)
 .debug_info    0x0001b0ca      0x320 /home/pcmonkey/altera/13.1/nios2eds/bin/gnu/H-i686-pc-linux-gnu/bin/../lib/gcc/nios2-elf/4.7.3/mno-hw-mul/libgcc.a(_ne_df.o)
 .debug_info    0x0001b3ea      0x320 /home/pcmonkey/altera/13.1/nios2eds/bin/gnu/H-i686-pc-linux-gnu/bin/../lib/gcc/nios2-elf/4.7.3/mno-hw-mul/libgcc.a(_gt_df.o)
 .debug_info    0x0001b70a      0x320 /home/pcmonkey/altera/13.1/nios2eds/bin/gnu/H-i686-pc-linux-gnu/bin/../lib/gcc/nios2-elf/4.7.3/mno-hw-mul/libgcc.a(_ge_df.o)
 .debug_info    0x0001ba2a      0x320 /home/pcmonkey/altera/13.1/nios2eds/bin/gnu/H-i686-pc-linux-gnu/bin/../lib/gcc/nios2-elf/4.7.3/mno-hw-mul/libgcc.a(_lt_df.o)
 .debug_info    0x0001bd4a      0x261 /home/pcmonkey/altera/13.1/nios2eds/bin/gnu/H-i686-pc-linux-gnu/bin/../lib/gcc/nios2-elf/4.7.3/mno-hw-mul/libgcc.a(_si_to_df.o)
 .debug_info    0x0001bfab      0x30b /home/pcmonkey/altera/13.1/nios2eds/bin/gnu/H-i686-pc-linux-gnu/bin/../lib/gcc/nios2-elf/4.7.3/mno-hw-mul/libgcc.a(_df_to_si.o)
 .debug_info    0x0001c2b6      0x155 /home/pcmonkey/altera/13.1/nios2eds/bin/gnu/H-i686-pc-linux-gnu/bin/../lib/gcc/nios2-elf/4.7.3/mno-hw-mul/libgcc.a(_thenan_df.o)
 .debug_info    0x0001c40b      0x284 /home/pcmonkey/altera/13.1/nios2eds/bin/gnu/H-i686-pc-linux-gnu/bin/../lib/gcc/nios2-elf/4.7.3/mno-hw-mul/libgcc.a(_usi_to_df.o)
 .debug_info    0x0001c68f      0x289 /home/pcmonkey/altera/13.1/nios2eds/bin/gnu/H-i686-pc-linux-gnu/bin/../lib/gcc/nios2-elf/4.7.3/mno-hw-mul/libgcc.a(lib2-divmod.o)
 .debug_info    0x0001c918      0x1eb /home/pcmonkey/altera/13.1/nios2eds/bin/gnu/H-i686-pc-linux-gnu/bin/../lib/gcc/nios2-elf/4.7.3/mno-hw-mul/libgcc.a(_muldi3.o)
 .debug_info    0x0001cb03       0xac /home/pcmonkey/altera/13.1/nios2eds/bin/gnu/H-i686-pc-linux-gnu/bin/../lib/gcc/nios2-elf/4.7.3/mno-hw-mul/libgcc.a(_clz.o)
 .debug_info    0x0001cbaf      0x123 /home/pcmonkey/altera/13.1/nios2eds/bin/gnu/H-i686-pc-linux-gnu/bin/../lib/gcc/nios2-elf/4.7.3/mno-hw-mul/libgcc.a(_clzsi2.o)
 .debug_info    0x0001ccd2      0x2f7 /home/pcmonkey/altera/13.1/nios2eds/bin/gnu/H-i686-pc-linux-gnu/bin/../lib/gcc/nios2-elf/4.7.3/mno-hw-mul/libgcc.a(_pack_df.o)
 .debug_info    0x0001cfc9      0x265 /home/pcmonkey/altera/13.1/nios2eds/bin/gnu/H-i686-pc-linux-gnu/bin/../lib/gcc/nios2-elf/4.7.3/mno-hw-mul/libgcc.a(_unpack_df.o)
 .debug_info    0x0001d22e      0x226 /home/pcmonkey/altera/13.1/nios2eds/bin/gnu/H-i686-pc-linux-gnu/bin/../lib/gcc/nios2-elf/4.7.3/mno-hw-mul/libgcc.a(_fpcmp_parts_df.o)
 .debug_info    0x0001d454      0x185 /home/pcmonkey/altera/13.1/nios2eds/bin/gnu/H-i686-pc-linux-gnu/bin/../lib/gcc/nios2-elf/4.7.3/mno-hw-mul/libgcc.a(_lshrdi3.o)
 .debug_info    0x0001d5d9      0x185 /home/pcmonkey/altera/13.1/nios2eds/bin/gnu/H-i686-pc-linux-gnu/bin/../lib/gcc/nios2-elf/4.7.3/mno-hw-mul/libgcc.a(_ashldi3.o)
 .debug_info    0x0001d75e      0x350 ../final_sf_bsp//libhal_bsp.a(alt_close.o)
 .debug_info    0x0001daae      0x4e3 ../final_sf_bsp//libhal_bsp.a(alt_dev.o)
 .debug_info    0x0001df91       0xa3 ../final_sf_bsp//libhal_bsp.a(alt_errno.o)
 .debug_info    0x0001e034      0x4d8 ../final_sf_bsp//libhal_bsp.a(alt_fstat.o)
 .debug_info    0x0001e50c      0x4db ../final_sf_bsp//libhal_bsp.a(alt_isatty.o)
 .debug_info    0x0001e9e7      0x135 ../final_sf_bsp//libhal_bsp.a(alt_load.o)
 .debug_info    0x0001eb1c      0x381 ../final_sf_bsp//libhal_bsp.a(alt_lseek.o)
 .debug_info    0x0001ee9d      0x139 ../final_sf_bsp//libhal_bsp.a(alt_main.o)
 .debug_info    0x0001efd6      0x950 ../final_sf_bsp//libhal_bsp.a(alt_malloc_lock.o)
 .debug_info    0x0001f926      0x3f0 ../final_sf_bsp//libhal_bsp.a(alt_open.o)
 .debug_info    0x0001fd16      0x500 ../final_sf_bsp//libhal_bsp.a(alt_read.o)
 .debug_info    0x00020216      0x2dd ../final_sf_bsp//libhal_bsp.a(alt_release_fd.o)
 .debug_info    0x000204f3      0x1b2 ../final_sf_bsp//libhal_bsp.a(alt_sbrk.o)
 .debug_info    0x000206a5       0xad ../final_sf_bsp//libhal_bsp.a(alt_usleep.o)
 .debug_info    0x00020752      0x507 ../final_sf_bsp//libhal_bsp.a(alt_write.o)
 .debug_info    0x00020c59      0x4c2 ../final_sf_bsp//libhal_bsp.a(alt_sys_init.o)
 .debug_info    0x0002111b      0x3da ../final_sf_bsp//libhal_bsp.a(altera_avalon_jtag_uart_fd.o)
 .debug_info    0x000214f5      0x1bc ../final_sf_bsp//libhal_bsp.a(altera_avalon_jtag_uart_read.o)
 .debug_info    0x000216b1      0x19f ../final_sf_bsp//libhal_bsp.a(altera_avalon_jtag_uart_write.o)
 .debug_info    0x00021850      0x235 ../final_sf_bsp//libhal_bsp.a(altera_avalon_timer_sc.o)
 .debug_info    0x00021a85      0x3b7 ../final_sf_bsp//libhal_bsp.a(altera_avalon_uart_fd.o)
 .debug_info    0x00021e3c      0x1b5 ../final_sf_bsp//libhal_bsp.a(altera_avalon_uart_read.o)
 .debug_info    0x00021ff1      0x1c8 ../final_sf_bsp//libhal_bsp.a(altera_avalon_uart_write.o)
 .debug_info    0x000221b9      0xa64 ../final_sf_bsp//libhal_bsp.a(altera_hostfs.o)
 .debug_info    0x00022c1d       0xd5 ../final_sf_bsp//libhal_bsp.a(alt_busy_sleep.o)
 .debug_info    0x00022cf2       0xa3 ../final_sf_bsp//libhal_bsp.a(alt_dcache_flush_all.o)
 .debug_info    0x00022d95      0x1b9 ../final_sf_bsp//libhal_bsp.a(alt_dev_llist_insert.o)
 .debug_info    0x00022f4e      0x30d ../final_sf_bsp//libhal_bsp.a(alt_find_dev.o)
 .debug_info    0x0002325b      0x30c ../final_sf_bsp//libhal_bsp.a(alt_find_file.o)
 .debug_info    0x00023567      0x329 ../final_sf_bsp//libhal_bsp.a(alt_fs_reg.o)
 .debug_info    0x00023890      0x339 ../final_sf_bsp//libhal_bsp.a(alt_get_fd.o)
 .debug_info    0x00023bc9       0x90 ../final_sf_bsp//libhal_bsp.a(alt_icache_flush_all.o)
 .debug_info    0x00023c59      0x364 ../final_sf_bsp//libhal_bsp.a(alt_iic.o)
 .debug_info    0x00023fbd      0x1f6 ../final_sf_bsp//libhal_bsp.a(alt_iic_isr_register.o)
 .debug_info    0x000241b3      0x4f0 ../final_sf_bsp//libhal_bsp.a(alt_io_redirect.o)
 .debug_info    0x000246a3       0x71 ../final_sf_bsp//libhal_bsp.a(alt_irq_entry.o)
 .debug_info    0x00024714      0x190 ../final_sf_bsp//libhal_bsp.a(alt_irq_handler.o)
 .debug_info    0x000248a4       0x8a ../final_sf_bsp//libhal_bsp.a(alt_irq_vars.o)
 .debug_info    0x0002492e      0x2b1 ../final_sf_bsp//libhal_bsp.a(alt_tick.o)
 .debug_info    0x00024bdf       0x90 ../final_sf_bsp//libhal_bsp.a(altera_nios2_qsys_irq.o)
 .debug_info    0x00024c6f       0x77 ../final_sf_bsp//libhal_bsp.a(alt_exception_entry.o)
 .debug_info    0x00024ce6       0xda ../final_sf_bsp//libhal_bsp.a(alt_icache_flush.o)
 .debug_info    0x00024dc0      0x993 /home/pcmonkey/altera/13.1/nios2eds/bin/gnu/H-i686-pc-linux-gnu/bin/../lib/gcc/nios2-elf/4.7.3/../../../../../H-i686-pc-linux-gnu/nios2-elf/lib/mno-hw-mul/libc.a(lib_a-exit.o)
 .debug_info    0x00025753      0x117 /home/pcmonkey/altera/13.1/nios2eds/bin/gnu/H-i686-pc-linux-gnu/bin/../lib/gcc/nios2-elf/4.7.3/../../../../../H-i686-pc-linux-gnu/nios2-elf/lib/mno-hw-mul/libc.a(lib_a-memcmp.o)
 .debug_info    0x0002586a      0xa07 /home/pcmonkey/altera/13.1/nios2eds/bin/gnu/H-i686-pc-linux-gnu/bin/../lib/gcc/nios2-elf/4.7.3/../../../../../H-i686-pc-linux-gnu/nios2-elf/lib/mno-hw-mul/libc.a(lib_a-__call_atexit.o)
 .debug_info    0x00026271       0xec ../final_sf_bsp//libhal_bsp.a(alt_exit.o)

.debug_abbrev   0x00000000     0x96e7
 *(.debug_abbrev)
 .debug_abbrev  0x00000000       0x12 ../final_sf_bsp//obj/HAL/src/crt0.o
 .debug_abbrev  0x00000012      0x1cf obj/default/umain.o
 .debug_abbrev  0x000001e1       0x6f /home/pcmonkey/altera/13.1/nios2eds/bin/gnu/H-i686-pc-linux-gnu/bin/../lib/gcc/nios2-elf/4.7.3/mno-hw-mul/libgcc.a(lib2-mul.o)
 .debug_abbrev  0x00000250      0x24e /home/pcmonkey/altera/13.1/nios2eds/bin/gnu/H-i686-pc-linux-gnu/bin/../lib/gcc/nios2-elf/4.7.3/../../../../../H-i686-pc-linux-gnu/nios2-elf/lib/mno-hw-mul/libc.a(lib_a-fclose.o)
 .debug_abbrev  0x0000049e      0x259 /home/pcmonkey/altera/13.1/nios2eds/bin/gnu/H-i686-pc-linux-gnu/bin/../lib/gcc/nios2-elf/4.7.3/../../../../../H-i686-pc-linux-gnu/nios2-elf/lib/mno-hw-mul/libc.a(lib_a-fflush.o)
 .debug_abbrev  0x000006f7      0x333 /home/pcmonkey/altera/13.1/nios2eds/bin/gnu/H-i686-pc-linux-gnu/bin/../lib/gcc/nios2-elf/4.7.3/../../../../../H-i686-pc-linux-gnu/nios2-elf/lib/mno-hw-mul/libc.a(lib_a-findfp.o)
 .debug_abbrev  0x00000a2a      0x250 /home/pcmonkey/altera/13.1/nios2eds/bin/gnu/H-i686-pc-linux-gnu/bin/../lib/gcc/nios2-elf/4.7.3/../../../../../H-i686-pc-linux-gnu/nios2-elf/lib/mno-hw-mul/libc.a(lib_a-fopen.o)
 .debug_abbrev  0x00000c7a      0x1e3 /home/pcmonkey/altera/13.1/nios2eds/bin/gnu/H-i686-pc-linux-gnu/bin/../lib/gcc/nios2-elf/4.7.3/../../../../../H-i686-pc-linux-gnu/nios2-elf/lib/mno-hw-mul/libc.a(lib_a-fprintf.o)
 .debug_abbrev  0x00000e5d      0x25d /home/pcmonkey/altera/13.1/nios2eds/bin/gnu/H-i686-pc-linux-gnu/bin/../lib/gcc/nios2-elf/4.7.3/../../../../../H-i686-pc-linux-gnu/nios2-elf/lib/mno-hw-mul/libc.a(lib_a-freer.o)
 .debug_abbrev  0x000010ba      0x2be /home/pcmonkey/altera/13.1/nios2eds/bin/gnu/H-i686-pc-linux-gnu/bin/../lib/gcc/nios2-elf/4.7.3/../../../../../H-i686-pc-linux-gnu/nios2-elf/lib/mno-hw-mul/libc.a(lib_a-fseek.o)
 .debug_abbrev  0x00001378      0x1ca /home/pcmonkey/altera/13.1/nios2eds/bin/gnu/H-i686-pc-linux-gnu/bin/../lib/gcc/nios2-elf/4.7.3/../../../../../H-i686-pc-linux-gnu/nios2-elf/lib/mno-hw-mul/libc.a(lib_a-fstatr.o)
 .debug_abbrev  0x00001542      0x224 /home/pcmonkey/altera/13.1/nios2eds/bin/gnu/H-i686-pc-linux-gnu/bin/../lib/gcc/nios2-elf/4.7.3/../../../../../H-i686-pc-linux-gnu/nios2-elf/lib/mno-hw-mul/libc.a(lib_a-fwalk.o)
 .debug_abbrev  0x00001766      0x162 /home/pcmonkey/altera/13.1/nios2eds/bin/gnu/H-i686-pc-linux-gnu/bin/../lib/gcc/nios2-elf/4.7.3/../../../../../H-i686-pc-linux-gnu/nios2-elf/lib/mno-hw-mul/libc.a(lib_a-impure.o)
 .debug_abbrev  0x000018c8       0x37 /home/pcmonkey/altera/13.1/nios2eds/bin/gnu/H-i686-pc-linux-gnu/bin/../lib/gcc/nios2-elf/4.7.3/../../../../../H-i686-pc-linux-gnu/nios2-elf/lib/mno-hw-mul/libc.a(lib_a-int_errno.o)
 .debug_abbrev  0x000018ff      0x1e8 /home/pcmonkey/altera/13.1/nios2eds/bin/gnu/H-i686-pc-linux-gnu/bin/../lib/gcc/nios2-elf/4.7.3/../../../../../H-i686-pc-linux-gnu/nios2-elf/lib/mno-hw-mul/libc.a(lib_a-makebuf.o)
 .debug_abbrev  0x00001ae7      0x284 /home/pcmonkey/altera/13.1/nios2eds/bin/gnu/H-i686-pc-linux-gnu/bin/../lib/gcc/nios2-elf/4.7.3/../../../../../H-i686-pc-linux-gnu/nios2-elf/lib/mno-hw-mul/libc.a(lib_a-mallocr.o)
 .debug_abbrev  0x00001d6b       0xac /home/pcmonkey/altera/13.1/nios2eds/bin/gnu/H-i686-pc-linux-gnu/bin/../lib/gcc/nios2-elf/4.7.3/../../../../../H-i686-pc-linux-gnu/nios2-elf/lib/mno-hw-mul/libc.a(lib_a-memset.o)
 .debug_abbrev  0x00001e17      0x1cf /home/pcmonkey/altera/13.1/nios2eds/bin/gnu/H-i686-pc-linux-gnu/bin/../lib/gcc/nios2-elf/4.7.3/../../../../../H-i686-pc-linux-gnu/nios2-elf/lib/mno-hw-mul/libc.a(lib_a-openr.o)
 .debug_abbrev  0x00001fe6      0x208 /home/pcmonkey/altera/13.1/nios2eds/bin/gnu/H-i686-pc-linux-gnu/bin/../lib/gcc/nios2-elf/4.7.3/../../../../../H-i686-pc-linux-gnu/nios2-elf/lib/mno-hw-mul/libc.a(lib_a-puts.o)
 .debug_abbrev  0x000021ee      0x232 /home/pcmonkey/altera/13.1/nios2eds/bin/gnu/H-i686-pc-linux-gnu/bin/../lib/gcc/nios2-elf/4.7.3/../../../../../H-i686-pc-linux-gnu/nios2-elf/lib/mno-hw-mul/libc.a(lib_a-refill.o)
 .debug_abbrev  0x00002420      0x1df /home/pcmonkey/altera/13.1/nios2eds/bin/gnu/H-i686-pc-linux-gnu/bin/../lib/gcc/nios2-elf/4.7.3/../../../../../H-i686-pc-linux-gnu/nios2-elf/lib/mno-hw-mul/libc.a(lib_a-sbrkr.o)
 .debug_abbrev  0x000025ff      0x226 /home/pcmonkey/altera/13.1/nios2eds/bin/gnu/H-i686-pc-linux-gnu/bin/../lib/gcc/nios2-elf/4.7.3/../../../../../H-i686-pc-linux-gnu/nios2-elf/lib/mno-hw-mul/libc.a(lib_a-stdio.o)
 .debug_abbrev  0x00002825       0x90 /home/pcmonkey/altera/13.1/nios2eds/bin/gnu/H-i686-pc-linux-gnu/bin/../lib/gcc/nios2-elf/4.7.3/../../../../../H-i686-pc-linux-gnu/nios2-elf/lib/mno-hw-mul/libc.a(lib_a-strlen.o)
 .debug_abbrev  0x000028b5      0x3d9 /home/pcmonkey/altera/13.1/nios2eds/bin/gnu/H-i686-pc-linux-gnu/bin/../lib/gcc/nios2-elf/4.7.3/../../../../../H-i686-pc-linux-gnu/nios2-elf/lib/mno-hw-mul/libc.a(lib_a-vfprintf.o)
 .debug_abbrev  0x00002c8e      0x1c0 /home/pcmonkey/altera/13.1/nios2eds/bin/gnu/H-i686-pc-linux-gnu/bin/../lib/gcc/nios2-elf/4.7.3/../../../../../H-i686-pc-linux-gnu/nios2-elf/lib/mno-hw-mul/libc.a(lib_a-writer.o)
 .debug_abbrev  0x00002e4e      0x1d5 /home/pcmonkey/altera/13.1/nios2eds/bin/gnu/H-i686-pc-linux-gnu/bin/../lib/gcc/nios2-elf/4.7.3/../../../../../H-i686-pc-linux-gnu/nios2-elf/lib/mno-hw-mul/libc.a(lib_a-wsetup.o)
 .debug_abbrev  0x00003023      0x1bb /home/pcmonkey/altera/13.1/nios2eds/bin/gnu/H-i686-pc-linux-gnu/bin/../lib/gcc/nios2-elf/4.7.3/../../../../../H-i686-pc-linux-gnu/nios2-elf/lib/mno-hw-mul/libc.a(lib_a-closer.o)
 .debug_abbrev  0x000031de      0x2ab /home/pcmonkey/altera/13.1/nios2eds/bin/gnu/H-i686-pc-linux-gnu/bin/../lib/gcc/nios2-elf/4.7.3/../../../../../H-i686-pc-linux-gnu/nios2-elf/lib/mno-hw-mul/libc.a(lib_a-dtoa.o)
 .debug_abbrev  0x00003489      0x18f /home/pcmonkey/altera/13.1/nios2eds/bin/gnu/H-i686-pc-linux-gnu/bin/../lib/gcc/nios2-elf/4.7.3/../../../../../H-i686-pc-linux-gnu/nios2-elf/lib/mno-hw-mul/libc.a(lib_a-flags.o)
 .debug_abbrev  0x00003618      0x234 /home/pcmonkey/altera/13.1/nios2eds/bin/gnu/H-i686-pc-linux-gnu/bin/../lib/gcc/nios2-elf/4.7.3/../../../../../H-i686-pc-linux-gnu/nios2-elf/lib/mno-hw-mul/libc.a(lib_a-fvwrite.o)
 .debug_abbrev  0x0000384c      0x1bb /home/pcmonkey/altera/13.1/nios2eds/bin/gnu/H-i686-pc-linux-gnu/bin/../lib/gcc/nios2-elf/4.7.3/../../../../../H-i686-pc-linux-gnu/nios2-elf/lib/mno-hw-mul/libc.a(lib_a-isattyr.o)
 .debug_abbrev  0x00003a07      0x29f /home/pcmonkey/altera/13.1/nios2eds/bin/gnu/H-i686-pc-linux-gnu/bin/../lib/gcc/nios2-elf/4.7.3/../../../../../H-i686-pc-linux-gnu/nios2-elf/lib/mno-hw-mul/libc.a(lib_a-locale.o)
 .debug_abbrev  0x00003ca6      0x1ca /home/pcmonkey/altera/13.1/nios2eds/bin/gnu/H-i686-pc-linux-gnu/bin/../lib/gcc/nios2-elf/4.7.3/../../../../../H-i686-pc-linux-gnu/nios2-elf/lib/mno-hw-mul/libc.a(lib_a-lseekr.o)
 .debug_abbrev  0x00003e70       0xab /home/pcmonkey/altera/13.1/nios2eds/bin/gnu/H-i686-pc-linux-gnu/bin/../lib/gcc/nios2-elf/4.7.3/../../../../../H-i686-pc-linux-gnu/nios2-elf/lib/mno-hw-mul/libc.a(lib_a-memchr.o)
 .debug_abbrev  0x00003f1b       0x9c /home/pcmonkey/altera/13.1/nios2eds/bin/gnu/H-i686-pc-linux-gnu/bin/../lib/gcc/nios2-elf/4.7.3/../../../../../H-i686-pc-linux-gnu/nios2-elf/lib/mno-hw-mul/libc.a(lib_a-memcpy.o)
 .debug_abbrev  0x00003fb7       0x9c /home/pcmonkey/altera/13.1/nios2eds/bin/gnu/H-i686-pc-linux-gnu/bin/../lib/gcc/nios2-elf/4.7.3/../../../../../H-i686-pc-linux-gnu/nios2-elf/lib/mno-hw-mul/libc.a(lib_a-memmove.o)
 .debug_abbrev  0x00004053      0x394 /home/pcmonkey/altera/13.1/nios2eds/bin/gnu/H-i686-pc-linux-gnu/bin/../lib/gcc/nios2-elf/4.7.3/../../../../../H-i686-pc-linux-gnu/nios2-elf/lib/mno-hw-mul/libc.a(lib_a-mprec.o)
 .debug_abbrev  0x000043e7      0x1bb /home/pcmonkey/altera/13.1/nios2eds/bin/gnu/H-i686-pc-linux-gnu/bin/../lib/gcc/nios2-elf/4.7.3/../../../../../H-i686-pc-linux-gnu/nios2-elf/lib/mno-hw-mul/libc.a(lib_a-readr.o)
 .debug_abbrev  0x000045a2      0x242 /home/pcmonkey/altera/13.1/nios2eds/bin/gnu/H-i686-pc-linux-gnu/bin/../lib/gcc/nios2-elf/4.7.3/../../../../../H-i686-pc-linux-gnu/nios2-elf/lib/mno-hw-mul/libc.a(lib_a-reallocr.o)
 .debug_abbrev  0x000047e4       0x6f /home/pcmonkey/altera/13.1/nios2eds/bin/gnu/H-i686-pc-linux-gnu/bin/../lib/gcc/nios2-elf/4.7.3/../../../../../H-i686-pc-linux-gnu/nios2-elf/lib/mno-hw-mul/libc.a(lib_a-s_isinfd.o)
 .debug_abbrev  0x00004853       0x6f /home/pcmonkey/altera/13.1/nios2eds/bin/gnu/H-i686-pc-linux-gnu/bin/../lib/gcc/nios2-elf/4.7.3/../../../../../H-i686-pc-linux-gnu/nios2-elf/lib/mno-hw-mul/libc.a(lib_a-s_isnand.o)
 .debug_abbrev  0x000048c2       0x74 /home/pcmonkey/altera/13.1/nios2eds/bin/gnu/H-i686-pc-linux-gnu/bin/../lib/gcc/nios2-elf/4.7.3/../../../../../H-i686-pc-linux-gnu/nios2-elf/lib/mno-hw-mul/libc.a(lib_a-strcmp.o)
 .debug_abbrev  0x00004936      0x202 /home/pcmonkey/altera/13.1/nios2eds/bin/gnu/H-i686-pc-linux-gnu/bin/../lib/gcc/nios2-elf/4.7.3/../../../../../H-i686-pc-linux-gnu/nios2-elf/lib/mno-hw-mul/libc.a(lib_a-callocr.o)
 .debug_abbrev  0x00004b38      0x170 /home/pcmonkey/altera/13.1/nios2eds/bin/gnu/H-i686-pc-linux-gnu/bin/../lib/gcc/nios2-elf/4.7.3/mno-hw-mul/libgcc.a(_udivdi3.o)
 .debug_abbrev  0x00004ca8      0x19c /home/pcmonkey/altera/13.1/nios2eds/bin/gnu/H-i686-pc-linux-gnu/bin/../lib/gcc/nios2-elf/4.7.3/mno-hw-mul/libgcc.a(_umoddi3.o)
 .debug_abbrev  0x00004e44      0x22d /home/pcmonkey/altera/13.1/nios2eds/bin/gnu/H-i686-pc-linux-gnu/bin/../lib/gcc/nios2-elf/4.7.3/mno-hw-mul/libgcc.a(_addsub_df.o)
 .debug_abbrev  0x00005071      0x240 /home/pcmonkey/altera/13.1/nios2eds/bin/gnu/H-i686-pc-linux-gnu/bin/../lib/gcc/nios2-elf/4.7.3/mno-hw-mul/libgcc.a(_mul_df.o)
 .debug_abbrev  0x000052b1      0x245 /home/pcmonkey/altera/13.1/nios2eds/bin/gnu/H-i686-pc-linux-gnu/bin/../lib/gcc/nios2-elf/4.7.3/mno-hw-mul/libgcc.a(_div_df.o)
 .debug_abbrev  0x000054f6      0x1a5 /home/pcmonkey/altera/13.1/nios2eds/bin/gnu/H-i686-pc-linux-gnu/bin/../lib/gcc/nios2-elf/4.7.3/mno-hw-mul/libgcc.a(_eq_df.o)
 .debug_abbrev  0x0000569b      0x1a5 /home/pcmonkey/altera/13.1/nios2eds/bin/gnu/H-i686-pc-linux-gnu/bin/../lib/gcc/nios2-elf/4.7.3/mno-hw-mul/libgcc.a(_ne_df.o)
 .debug_abbrev  0x00005840      0x1a5 /home/pcmonkey/altera/13.1/nios2eds/bin/gnu/H-i686-pc-linux-gnu/bin/../lib/gcc/nios2-elf/4.7.3/mno-hw-mul/libgcc.a(_gt_df.o)
 .debug_abbrev  0x000059e5      0x1a5 /home/pcmonkey/altera/13.1/nios2eds/bin/gnu/H-i686-pc-linux-gnu/bin/../lib/gcc/nios2-elf/4.7.3/mno-hw-mul/libgcc.a(_ge_df.o)
 .debug_abbrev  0x00005b8a      0x1a5 /home/pcmonkey/altera/13.1/nios2eds/bin/gnu/H-i686-pc-linux-gnu/bin/../lib/gcc/nios2-elf/4.7.3/mno-hw-mul/libgcc.a(_lt_df.o)
 .debug_abbrev  0x00005d2f      0x19c /home/pcmonkey/altera/13.1/nios2eds/bin/gnu/H-i686-pc-linux-gnu/bin/../lib/gcc/nios2-elf/4.7.3/mno-hw-mul/libgcc.a(_si_to_df.o)
 .debug_abbrev  0x00005ecb      0x1ae /home/pcmonkey/altera/13.1/nios2eds/bin/gnu/H-i686-pc-linux-gnu/bin/../lib/gcc/nios2-elf/4.7.3/mno-hw-mul/libgcc.a(_df_to_si.o)
 .debug_abbrev  0x00006079       0xb6 /home/pcmonkey/altera/13.1/nios2eds/bin/gnu/H-i686-pc-linux-gnu/bin/../lib/gcc/nios2-elf/4.7.3/mno-hw-mul/libgcc.a(_thenan_df.o)
 .debug_abbrev  0x0000612f      0x1bf /home/pcmonkey/altera/13.1/nios2eds/bin/gnu/H-i686-pc-linux-gnu/bin/../lib/gcc/nios2-elf/4.7.3/mno-hw-mul/libgcc.a(_usi_to_df.o)
 .debug_abbrev  0x000062ee      0x112 /home/pcmonkey/altera/13.1/nios2eds/bin/gnu/H-i686-pc-linux-gnu/bin/../lib/gcc/nios2-elf/4.7.3/mno-hw-mul/libgcc.a(lib2-divmod.o)
 .debug_abbrev  0x00006400       0xe0 /home/pcmonkey/altera/13.1/nios2eds/bin/gnu/H-i686-pc-linux-gnu/bin/../lib/gcc/nios2-elf/4.7.3/mno-hw-mul/libgcc.a(_muldi3.o)
 .debug_abbrev  0x000064e0       0x5d /home/pcmonkey/altera/13.1/nios2eds/bin/gnu/H-i686-pc-linux-gnu/bin/../lib/gcc/nios2-elf/4.7.3/mno-hw-mul/libgcc.a(_clz.o)
 .debug_abbrev  0x0000653d       0xbe /home/pcmonkey/altera/13.1/nios2eds/bin/gnu/H-i686-pc-linux-gnu/bin/../lib/gcc/nios2-elf/4.7.3/mno-hw-mul/libgcc.a(_clzsi2.o)
 .debug_abbrev  0x000065fb      0x1b6 /home/pcmonkey/altera/13.1/nios2eds/bin/gnu/H-i686-pc-linux-gnu/bin/../lib/gcc/nios2-elf/4.7.3/mno-hw-mul/libgcc.a(_pack_df.o)
 .debug_abbrev  0x000067b1      0x15d /home/pcmonkey/altera/13.1/nios2eds/bin/gnu/H-i686-pc-linux-gnu/bin/../lib/gcc/nios2-elf/4.7.3/mno-hw-mul/libgcc.a(_unpack_df.o)
 .debug_abbrev  0x0000690e      0x146 /home/pcmonkey/altera/13.1/nios2eds/bin/gnu/H-i686-pc-linux-gnu/bin/../lib/gcc/nios2-elf/4.7.3/mno-hw-mul/libgcc.a(_fpcmp_parts_df.o)
 .debug_abbrev  0x00006a54       0xf1 /home/pcmonkey/altera/13.1/nios2eds/bin/gnu/H-i686-pc-linux-gnu/bin/../lib/gcc/nios2-elf/4.7.3/mno-hw-mul/libgcc.a(_lshrdi3.o)
 .debug_abbrev  0x00006b45       0xf1 /home/pcmonkey/altera/13.1/nios2eds/bin/gnu/H-i686-pc-linux-gnu/bin/../lib/gcc/nios2-elf/4.7.3/mno-hw-mul/libgcc.a(_ashldi3.o)
 .debug_abbrev  0x00006c36      0x11f ../final_sf_bsp//libhal_bsp.a(alt_close.o)
 .debug_abbrev  0x00006d55       0xd9 ../final_sf_bsp//libhal_bsp.a(alt_dev.o)
 .debug_abbrev  0x00006e2e       0x5a ../final_sf_bsp//libhal_bsp.a(alt_errno.o)
 .debug_abbrev  0x00006e88      0x11f ../final_sf_bsp//libhal_bsp.a(alt_fstat.o)
 .debug_abbrev  0x00006fa7      0x11f ../final_sf_bsp//libhal_bsp.a(alt_isatty.o)
 .debug_abbrev  0x000070c6       0x9d ../final_sf_bsp//libhal_bsp.a(alt_load.o)
 .debug_abbrev  0x00007163      0x11f ../final_sf_bsp//libhal_bsp.a(alt_lseek.o)
 .debug_abbrev  0x00007282       0xba ../final_sf_bsp//libhal_bsp.a(alt_main.o)
 .debug_abbrev  0x0000733c      0x187 ../final_sf_bsp//libhal_bsp.a(alt_malloc_lock.o)
 .debug_abbrev  0x000074c3      0x148 ../final_sf_bsp//libhal_bsp.a(alt_open.o)
 .debug_abbrev  0x0000760b      0x12e ../final_sf_bsp//libhal_bsp.a(alt_read.o)
 .debug_abbrev  0x00007739       0xde ../final_sf_bsp//libhal_bsp.a(alt_release_fd.o)
 .debug_abbrev  0x00007817      0x112 ../final_sf_bsp//libhal_bsp.a(alt_sbrk.o)
 .debug_abbrev  0x00007929       0x60 ../final_sf_bsp//libhal_bsp.a(alt_usleep.o)
 .debug_abbrev  0x00007989      0x133 ../final_sf_bsp//libhal_bsp.a(alt_write.o)
 .debug_abbrev  0x00007abc      0x155 ../final_sf_bsp//libhal_bsp.a(alt_sys_init.o)
 .debug_abbrev  0x00007c11       0xf7 ../final_sf_bsp//libhal_bsp.a(altera_avalon_jtag_uart_fd.o)
 .debug_abbrev  0x00007d08       0xd5 ../final_sf_bsp//libhal_bsp.a(altera_avalon_jtag_uart_read.o)
 .debug_abbrev  0x00007ddd       0xd5 ../final_sf_bsp//libhal_bsp.a(altera_avalon_jtag_uart_write.o)
 .debug_abbrev  0x00007eb2      0x155 ../final_sf_bsp//libhal_bsp.a(altera_avalon_timer_sc.o)
 .debug_abbrev  0x00008007       0xf0 ../final_sf_bsp//libhal_bsp.a(altera_avalon_uart_fd.o)
 .debug_abbrev  0x000080f7       0xd9 ../final_sf_bsp//libhal_bsp.a(altera_avalon_uart_read.o)
 .debug_abbrev  0x000081d0       0xe0 ../final_sf_bsp//libhal_bsp.a(altera_avalon_uart_write.o)
 .debug_abbrev  0x000082b0      0x18d ../final_sf_bsp//libhal_bsp.a(altera_hostfs.o)
 .debug_abbrev  0x0000843d       0x7e ../final_sf_bsp//libhal_bsp.a(alt_busy_sleep.o)
 .debug_abbrev  0x000084bb       0x5a ../final_sf_bsp//libhal_bsp.a(alt_dcache_flush_all.o)
 .debug_abbrev  0x00008515      0x114 ../final_sf_bsp//libhal_bsp.a(alt_dev_llist_insert.o)
 .debug_abbrev  0x00008629       0xf0 ../final_sf_bsp//libhal_bsp.a(alt_find_dev.o)
 .debug_abbrev  0x00008719       0xf0 ../final_sf_bsp//libhal_bsp.a(alt_find_file.o)
 .debug_abbrev  0x00008809      0x108 ../final_sf_bsp//libhal_bsp.a(alt_fs_reg.o)
 .debug_abbrev  0x00008911      0x10d ../final_sf_bsp//libhal_bsp.a(alt_get_fd.o)
 .debug_abbrev  0x00008a1e       0x42 ../final_sf_bsp//libhal_bsp.a(alt_icache_flush_all.o)
 .debug_abbrev  0x00008a60      0x16a ../final_sf_bsp//libhal_bsp.a(alt_iic.o)
 .debug_abbrev  0x00008bca      0x169 ../final_sf_bsp//libhal_bsp.a(alt_iic_isr_register.o)
 .debug_abbrev  0x00008d33      0x114 ../final_sf_bsp//libhal_bsp.a(alt_io_redirect.o)
 .debug_abbrev  0x00008e47       0x12 ../final_sf_bsp//libhal_bsp.a(alt_irq_entry.o)
 .debug_abbrev  0x00008e59      0x124 ../final_sf_bsp//libhal_bsp.a(alt_irq_handler.o)
 .debug_abbrev  0x00008f7d       0x40 ../final_sf_bsp//libhal_bsp.a(alt_irq_vars.o)
 .debug_abbrev  0x00008fbd      0x15a ../final_sf_bsp//libhal_bsp.a(alt_tick.o)
 .debug_abbrev  0x00009117       0x42 ../final_sf_bsp//libhal_bsp.a(altera_nios2_qsys_irq.o)
 .debug_abbrev  0x00009159       0x12 ../final_sf_bsp//libhal_bsp.a(alt_exception_entry.o)
 .debug_abbrev  0x0000916b       0x8c ../final_sf_bsp//libhal_bsp.a(alt_icache_flush.o)
 .debug_abbrev  0x000091f7      0x1c8 /home/pcmonkey/altera/13.1/nios2eds/bin/gnu/H-i686-pc-linux-gnu/bin/../lib/gcc/nios2-elf/4.7.3/../../../../../H-i686-pc-linux-gnu/nios2-elf/lib/mno-hw-mul/libc.a(lib_a-exit.o)
 .debug_abbrev  0x000093bf       0x7f /home/pcmonkey/altera/13.1/nios2eds/bin/gnu/H-i686-pc-linux-gnu/bin/../lib/gcc/nios2-elf/4.7.3/../../../../../H-i686-pc-linux-gnu/nios2-elf/lib/mno-hw-mul/libc.a(lib_a-memcmp.o)
 .debug_abbrev  0x0000943e      0x203 /home/pcmonkey/altera/13.1/nios2eds/bin/gnu/H-i686-pc-linux-gnu/bin/../lib/gcc/nios2-elf/4.7.3/../../../../../H-i686-pc-linux-gnu/nios2-elf/lib/mno-hw-mul/libc.a(lib_a-__call_atexit.o)
 .debug_abbrev  0x00009641       0xa6 ../final_sf_bsp//libhal_bsp.a(alt_exit.o)

.debug_line     0x00000000     0xb015
 *(.debug_line)
 .debug_line    0x00000000       0x72 ../final_sf_bsp//obj/HAL/src/crt0.o
 .debug_line    0x00000072      0x478 obj/default/umain.o
 .debug_line    0x000004ea       0x80 /home/pcmonkey/altera/13.1/nios2eds/bin/gnu/H-i686-pc-linux-gnu/bin/../lib/gcc/nios2-elf/4.7.3/mno-hw-mul/libgcc.a(lib2-mul.o)
 .debug_line    0x0000056a      0x269 /home/pcmonkey/altera/13.1/nios2eds/bin/gnu/H-i686-pc-linux-gnu/bin/../lib/gcc/nios2-elf/4.7.3/../../../../../H-i686-pc-linux-gnu/nios2-elf/lib/mno-hw-mul/libc.a(lib_a-fclose.o)
 .debug_line    0x000007d3      0x29f /home/pcmonkey/altera/13.1/nios2eds/bin/gnu/H-i686-pc-linux-gnu/bin/../lib/gcc/nios2-elf/4.7.3/../../../../../H-i686-pc-linux-gnu/nios2-elf/lib/mno-hw-mul/libc.a(lib_a-fflush.o)
 .debug_line    0x00000a72      0x2ea /home/pcmonkey/altera/13.1/nios2eds/bin/gnu/H-i686-pc-linux-gnu/bin/../lib/gcc/nios2-elf/4.7.3/../../../../../H-i686-pc-linux-gnu/nios2-elf/lib/mno-hw-mul/libc.a(lib_a-findfp.o)
 .debug_line    0x00000d5c      0x244 /home/pcmonkey/altera/13.1/nios2eds/bin/gnu/H-i686-pc-linux-gnu/bin/../lib/gcc/nios2-elf/4.7.3/../../../../../H-i686-pc-linux-gnu/nios2-elf/lib/mno-hw-mul/libc.a(lib_a-fopen.o)
 .debug_line    0x00000fa0      0x21b /home/pcmonkey/altera/13.1/nios2eds/bin/gnu/H-i686-pc-linux-gnu/bin/../lib/gcc/nios2-elf/4.7.3/../../../../../H-i686-pc-linux-gnu/nios2-elf/lib/mno-hw-mul/libc.a(lib_a-fprintf.o)
 .debug_line    0x000011bb      0x314 /home/pcmonkey/altera/13.1/nios2eds/bin/gnu/H-i686-pc-linux-gnu/bin/../lib/gcc/nios2-elf/4.7.3/../../../../../H-i686-pc-linux-gnu/nios2-elf/lib/mno-hw-mul/libc.a(lib_a-freer.o)
 .debug_line    0x000014cf      0x35f /home/pcmonkey/altera/13.1/nios2eds/bin/gnu/H-i686-pc-linux-gnu/bin/../lib/gcc/nios2-elf/4.7.3/../../../../../H-i686-pc-linux-gnu/nios2-elf/lib/mno-hw-mul/libc.a(lib_a-fseek.o)
 .debug_line    0x0000182e      0x21f /home/pcmonkey/altera/13.1/nios2eds/bin/gnu/H-i686-pc-linux-gnu/bin/../lib/gcc/nios2-elf/4.7.3/../../../../../H-i686-pc-linux-gnu/nios2-elf/lib/mno-hw-mul/libc.a(lib_a-fstatr.o)
 .debug_line    0x00001a4d      0x25c /home/pcmonkey/altera/13.1/nios2eds/bin/gnu/H-i686-pc-linux-gnu/bin/../lib/gcc/nios2-elf/4.7.3/../../../../../H-i686-pc-linux-gnu/nios2-elf/lib/mno-hw-mul/libc.a(lib_a-fwalk.o)
 .debug_line    0x00001ca9      0x176 /home/pcmonkey/altera/13.1/nios2eds/bin/gnu/H-i686-pc-linux-gnu/bin/../lib/gcc/nios2-elf/4.7.3/../../../../../H-i686-pc-linux-gnu/nios2-elf/lib/mno-hw-mul/libc.a(lib_a-impure.o)
 .debug_line    0x00001e1f       0x60 /home/pcmonkey/altera/13.1/nios2eds/bin/gnu/H-i686-pc-linux-gnu/bin/../lib/gcc/nios2-elf/4.7.3/../../../../../H-i686-pc-linux-gnu/nios2-elf/lib/mno-hw-mul/libc.a(lib_a-int_errno.o)
 .debug_line    0x00001e7f      0x296 /home/pcmonkey/altera/13.1/nios2eds/bin/gnu/H-i686-pc-linux-gnu/bin/../lib/gcc/nios2-elf/4.7.3/../../../../../H-i686-pc-linux-gnu/nios2-elf/lib/mno-hw-mul/libc.a(lib_a-makebuf.o)
 .debug_line    0x00002115      0x424 /home/pcmonkey/altera/13.1/nios2eds/bin/gnu/H-i686-pc-linux-gnu/bin/../lib/gcc/nios2-elf/4.7.3/../../../../../H-i686-pc-linux-gnu/nios2-elf/lib/mno-hw-mul/libc.a(lib_a-mallocr.o)
 .debug_line    0x00002539      0x1f4 /home/pcmonkey/altera/13.1/nios2eds/bin/gnu/H-i686-pc-linux-gnu/bin/../lib/gcc/nios2-elf/4.7.3/../../../../../H-i686-pc-linux-gnu/nios2-elf/lib/mno-hw-mul/libc.a(lib_a-memset.o)
 .debug_line    0x0000272d      0x21d /home/pcmonkey/altera/13.1/nios2eds/bin/gnu/H-i686-pc-linux-gnu/bin/../lib/gcc/nios2-elf/4.7.3/../../../../../H-i686-pc-linux-gnu/nios2-elf/lib/mno-hw-mul/libc.a(lib_a-openr.o)
 .debug_line    0x0000294a      0x238 /home/pcmonkey/altera/13.1/nios2eds/bin/gnu/H-i686-pc-linux-gnu/bin/../lib/gcc/nios2-elf/4.7.3/../../../../../H-i686-pc-linux-gnu/nios2-elf/lib/mno-hw-mul/libc.a(lib_a-puts.o)
 .debug_line    0x00002b82      0x290 /home/pcmonkey/altera/13.1/nios2eds/bin/gnu/H-i686-pc-linux-gnu/bin/../lib/gcc/nios2-elf/4.7.3/../../../../../H-i686-pc-linux-gnu/nios2-elf/lib/mno-hw-mul/libc.a(lib_a-refill.o)
 .debug_line    0x00002e12      0x215 /home/pcmonkey/altera/13.1/nios2eds/bin/gnu/H-i686-pc-linux-gnu/bin/../lib/gcc/nios2-elf/4.7.3/../../../../../H-i686-pc-linux-gnu/nios2-elf/lib/mno-hw-mul/libc.a(lib_a-sbrkr.o)
 .debug_line    0x00003027      0x248 /home/pcmonkey/altera/13.1/nios2eds/bin/gnu/H-i686-pc-linux-gnu/bin/../lib/gcc/nios2-elf/4.7.3/../../../../../H-i686-pc-linux-gnu/nios2-elf/lib/mno-hw-mul/libc.a(lib_a-stdio.o)
 .debug_line    0x0000326f      0x185 /home/pcmonkey/altera/13.1/nios2eds/bin/gnu/H-i686-pc-linux-gnu/bin/../lib/gcc/nios2-elf/4.7.3/../../../../../H-i686-pc-linux-gnu/nios2-elf/lib/mno-hw-mul/libc.a(lib_a-strlen.o)
 .debug_line    0x000033f4      0xb06 /home/pcmonkey/altera/13.1/nios2eds/bin/gnu/H-i686-pc-linux-gnu/bin/../lib/gcc/nios2-elf/4.7.3/../../../../../H-i686-pc-linux-gnu/nios2-elf/lib/mno-hw-mul/libc.a(lib_a-vfprintf.o)
 .debug_line    0x00003efa      0x216 /home/pcmonkey/altera/13.1/nios2eds/bin/gnu/H-i686-pc-linux-gnu/bin/../lib/gcc/nios2-elf/4.7.3/../../../../../H-i686-pc-linux-gnu/nios2-elf/lib/mno-hw-mul/libc.a(lib_a-writer.o)
 .debug_line    0x00004110      0x26e /home/pcmonkey/altera/13.1/nios2eds/bin/gnu/H-i686-pc-linux-gnu/bin/../lib/gcc/nios2-elf/4.7.3/../../../../../H-i686-pc-linux-gnu/nios2-elf/lib/mno-hw-mul/libc.a(lib_a-wsetup.o)
 .debug_line    0x0000437e      0x216 /home/pcmonkey/altera/13.1/nios2eds/bin/gnu/H-i686-pc-linux-gnu/bin/../lib/gcc/nios2-elf/4.7.3/../../../../../H-i686-pc-linux-gnu/nios2-elf/lib/mno-hw-mul/libc.a(lib_a-closer.o)
 .debug_line    0x00004594      0x893 /home/pcmonkey/altera/13.1/nios2eds/bin/gnu/H-i686-pc-linux-gnu/bin/../lib/gcc/nios2-elf/4.7.3/../../../../../H-i686-pc-linux-gnu/nios2-elf/lib/mno-hw-mul/libc.a(lib_a-dtoa.o)
 .debug_line    0x00004e27      0x1b0 /home/pcmonkey/altera/13.1/nios2eds/bin/gnu/H-i686-pc-linux-gnu/bin/../lib/gcc/nios2-elf/4.7.3/../../../../../H-i686-pc-linux-gnu/nios2-elf/lib/mno-hw-mul/libc.a(lib_a-flags.o)
 .debug_line    0x00004fd7      0x363 /home/pcmonkey/altera/13.1/nios2eds/bin/gnu/H-i686-pc-linux-gnu/bin/../lib/gcc/nios2-elf/4.7.3/../../../../../H-i686-pc-linux-gnu/nios2-elf/lib/mno-hw-mul/libc.a(lib_a-fvwrite.o)
 .debug_line    0x0000533a      0x217 /home/pcmonkey/altera/13.1/nios2eds/bin/gnu/H-i686-pc-linux-gnu/bin/../lib/gcc/nios2-elf/4.7.3/../../../../../H-i686-pc-linux-gnu/nios2-elf/lib/mno-hw-mul/libc.a(lib_a-isattyr.o)
 .debug_line    0x00005551      0x234 /home/pcmonkey/altera/13.1/nios2eds/bin/gnu/H-i686-pc-linux-gnu/bin/../lib/gcc/nios2-elf/4.7.3/../../../../../H-i686-pc-linux-gnu/nios2-elf/lib/mno-hw-mul/libc.a(lib_a-locale.o)
 .debug_line    0x00005785      0x221 /home/pcmonkey/altera/13.1/nios2eds/bin/gnu/H-i686-pc-linux-gnu/bin/../lib/gcc/nios2-elf/4.7.3/../../../../../H-i686-pc-linux-gnu/nios2-elf/lib/mno-hw-mul/libc.a(lib_a-lseekr.o)
 .debug_line    0x000059a6      0x1f4 /home/pcmonkey/altera/13.1/nios2eds/bin/gnu/H-i686-pc-linux-gnu/bin/../lib/gcc/nios2-elf/4.7.3/../../../../../H-i686-pc-linux-gnu/nios2-elf/lib/mno-hw-mul/libc.a(lib_a-memchr.o)
 .debug_line    0x00005b9a      0x144 /home/pcmonkey/altera/13.1/nios2eds/bin/gnu/H-i686-pc-linux-gnu/bin/../lib/gcc/nios2-elf/4.7.3/../../../../../H-i686-pc-linux-gnu/nios2-elf/lib/mno-hw-mul/libc.a(lib_a-memcpy.o)
 .debug_line    0x00005cde      0x1f9 /home/pcmonkey/altera/13.1/nios2eds/bin/gnu/H-i686-pc-linux-gnu/bin/../lib/gcc/nios2-elf/4.7.3/../../../../../H-i686-pc-linux-gnu/nios2-elf/lib/mno-hw-mul/libc.a(lib_a-memmove.o)
 .debug_line    0x00005ed7      0x713 /home/pcmonkey/altera/13.1/nios2eds/bin/gnu/H-i686-pc-linux-gnu/bin/../lib/gcc/nios2-elf/4.7.3/../../../../../H-i686-pc-linux-gnu/nios2-elf/lib/mno-hw-mul/libc.a(lib_a-mprec.o)
 .debug_line    0x000065ea      0x215 /home/pcmonkey/altera/13.1/nios2eds/bin/gnu/H-i686-pc-linux-gnu/bin/../lib/gcc/nios2-elf/4.7.3/../../../../../H-i686-pc-linux-gnu/nios2-elf/lib/mno-hw-mul/libc.a(lib_a-readr.o)
 .debug_line    0x000067ff      0x333 /home/pcmonkey/altera/13.1/nios2eds/bin/gnu/H-i686-pc-linux-gnu/bin/../lib/gcc/nios2-elf/4.7.3/../../../../../H-i686-pc-linux-gnu/nios2-elf/lib/mno-hw-mul/libc.a(lib_a-reallocr.o)
 .debug_line    0x00006b32      0x173 /home/pcmonkey/altera/13.1/nios2eds/bin/gnu/H-i686-pc-linux-gnu/bin/../lib/gcc/nios2-elf/4.7.3/../../../../../H-i686-pc-linux-gnu/nios2-elf/lib/mno-hw-mul/libc.a(lib_a-s_isinfd.o)
 .debug_line    0x00006ca5      0x173 /home/pcmonkey/altera/13.1/nios2eds/bin/gnu/H-i686-pc-linux-gnu/bin/../lib/gcc/nios2-elf/4.7.3/../../../../../H-i686-pc-linux-gnu/nios2-elf/lib/mno-hw-mul/libc.a(lib_a-s_isnand.o)
 .debug_line    0x00006e18      0x113 /home/pcmonkey/altera/13.1/nios2eds/bin/gnu/H-i686-pc-linux-gnu/bin/../lib/gcc/nios2-elf/4.7.3/../../../../../H-i686-pc-linux-gnu/nios2-elf/lib/mno-hw-mul/libc.a(lib_a-strcmp.o)
 .debug_line    0x00006f2b      0x1c9 /home/pcmonkey/altera/13.1/nios2eds/bin/gnu/H-i686-pc-linux-gnu/bin/../lib/gcc/nios2-elf/4.7.3/../../../../../H-i686-pc-linux-gnu/nios2-elf/lib/mno-hw-mul/libc.a(lib_a-callocr.o)
 .debug_line    0x000070f4      0x11c /home/pcmonkey/altera/13.1/nios2eds/bin/gnu/H-i686-pc-linux-gnu/bin/../lib/gcc/nios2-elf/4.7.3/mno-hw-mul/libgcc.a(_udivdi3.o)
 .debug_line    0x00007210      0x124 /home/pcmonkey/altera/13.1/nios2eds/bin/gnu/H-i686-pc-linux-gnu/bin/../lib/gcc/nios2-elf/4.7.3/mno-hw-mul/libgcc.a(_umoddi3.o)
 .debug_line    0x00007334      0x134 /home/pcmonkey/altera/13.1/nios2eds/bin/gnu/H-i686-pc-linux-gnu/bin/../lib/gcc/nios2-elf/4.7.3/mno-hw-mul/libgcc.a(_addsub_df.o)
 .debug_line    0x00007468      0x117 /home/pcmonkey/altera/13.1/nios2eds/bin/gnu/H-i686-pc-linux-gnu/bin/../lib/gcc/nios2-elf/4.7.3/mno-hw-mul/libgcc.a(_mul_df.o)
 .debug_line    0x0000757f       0xd1 /home/pcmonkey/altera/13.1/nios2eds/bin/gnu/H-i686-pc-linux-gnu/bin/../lib/gcc/nios2-elf/4.7.3/mno-hw-mul/libgcc.a(_div_df.o)
 .debug_line    0x00007650       0x70 /home/pcmonkey/altera/13.1/nios2eds/bin/gnu/H-i686-pc-linux-gnu/bin/../lib/gcc/nios2-elf/4.7.3/mno-hw-mul/libgcc.a(_eq_df.o)
 .debug_line    0x000076c0       0x70 /home/pcmonkey/altera/13.1/nios2eds/bin/gnu/H-i686-pc-linux-gnu/bin/../lib/gcc/nios2-elf/4.7.3/mno-hw-mul/libgcc.a(_ne_df.o)
 .debug_line    0x00007730       0x71 /home/pcmonkey/altera/13.1/nios2eds/bin/gnu/H-i686-pc-linux-gnu/bin/../lib/gcc/nios2-elf/4.7.3/mno-hw-mul/libgcc.a(_gt_df.o)
 .debug_line    0x000077a1       0x71 /home/pcmonkey/altera/13.1/nios2eds/bin/gnu/H-i686-pc-linux-gnu/bin/../lib/gcc/nios2-elf/4.7.3/mno-hw-mul/libgcc.a(_ge_df.o)
 .debug_line    0x00007812       0x70 /home/pcmonkey/altera/13.1/nios2eds/bin/gnu/H-i686-pc-linux-gnu/bin/../lib/gcc/nios2-elf/4.7.3/mno-hw-mul/libgcc.a(_lt_df.o)
 .debug_line    0x00007882       0x97 /home/pcmonkey/altera/13.1/nios2eds/bin/gnu/H-i686-pc-linux-gnu/bin/../lib/gcc/nios2-elf/4.7.3/mno-hw-mul/libgcc.a(_si_to_df.o)
 .debug_line    0x00007919       0x90 /home/pcmonkey/altera/13.1/nios2eds/bin/gnu/H-i686-pc-linux-gnu/bin/../lib/gcc/nios2-elf/4.7.3/mno-hw-mul/libgcc.a(_df_to_si.o)
 .debug_line    0x000079a9       0x54 /home/pcmonkey/altera/13.1/nios2eds/bin/gnu/H-i686-pc-linux-gnu/bin/../lib/gcc/nios2-elf/4.7.3/mno-hw-mul/libgcc.a(_thenan_df.o)
 .debug_line    0x000079fd       0xa1 /home/pcmonkey/altera/13.1/nios2eds/bin/gnu/H-i686-pc-linux-gnu/bin/../lib/gcc/nios2-elf/4.7.3/mno-hw-mul/libgcc.a(_usi_to_df.o)
 .debug_line    0x00007a9e       0xd6 /home/pcmonkey/altera/13.1/nios2eds/bin/gnu/H-i686-pc-linux-gnu/bin/../lib/gcc/nios2-elf/4.7.3/mno-hw-mul/libgcc.a(lib2-divmod.o)
 .debug_line    0x00007b74       0xa2 /home/pcmonkey/altera/13.1/nios2eds/bin/gnu/H-i686-pc-linux-gnu/bin/../lib/gcc/nios2-elf/4.7.3/mno-hw-mul/libgcc.a(_muldi3.o)
 .debug_line    0x00007c16       0x56 /home/pcmonkey/altera/13.1/nios2eds/bin/gnu/H-i686-pc-linux-gnu/bin/../lib/gcc/nios2-elf/4.7.3/mno-hw-mul/libgcc.a(_clz.o)
 .debug_line    0x00007c6c       0x8f /home/pcmonkey/altera/13.1/nios2eds/bin/gnu/H-i686-pc-linux-gnu/bin/../lib/gcc/nios2-elf/4.7.3/mno-hw-mul/libgcc.a(_clzsi2.o)
 .debug_line    0x00007cfb       0xca /home/pcmonkey/altera/13.1/nios2eds/bin/gnu/H-i686-pc-linux-gnu/bin/../lib/gcc/nios2-elf/4.7.3/mno-hw-mul/libgcc.a(_pack_df.o)
 .debug_line    0x00007dc5       0xa5 /home/pcmonkey/altera/13.1/nios2eds/bin/gnu/H-i686-pc-linux-gnu/bin/../lib/gcc/nios2-elf/4.7.3/mno-hw-mul/libgcc.a(_unpack_df.o)
 .debug_line    0x00007e6a       0x99 /home/pcmonkey/altera/13.1/nios2eds/bin/gnu/H-i686-pc-linux-gnu/bin/../lib/gcc/nios2-elf/4.7.3/mno-hw-mul/libgcc.a(_fpcmp_parts_df.o)
 .debug_line    0x00007f03       0x7a /home/pcmonkey/altera/13.1/nios2eds/bin/gnu/H-i686-pc-linux-gnu/bin/../lib/gcc/nios2-elf/4.7.3/mno-hw-mul/libgcc.a(_lshrdi3.o)
 .debug_line    0x00007f7d       0x78 /home/pcmonkey/altera/13.1/nios2eds/bin/gnu/H-i686-pc-linux-gnu/bin/../lib/gcc/nios2-elf/4.7.3/mno-hw-mul/libgcc.a(_ashldi3.o)
 .debug_line    0x00007ff5      0x197 ../final_sf_bsp//libhal_bsp.a(alt_close.o)
 .debug_line    0x0000818c      0x12a ../final_sf_bsp//libhal_bsp.a(alt_dev.o)
 .debug_line    0x000082b6       0x51 ../final_sf_bsp//libhal_bsp.a(alt_errno.o)
 .debug_line    0x00008307      0x191 ../final_sf_bsp//libhal_bsp.a(alt_fstat.o)
 .debug_line    0x00008498      0x191 ../final_sf_bsp//libhal_bsp.a(alt_isatty.o)
 .debug_line    0x00008629       0x92 ../final_sf_bsp//libhal_bsp.a(alt_load.o)
 .debug_line    0x000086bb      0x195 ../final_sf_bsp//libhal_bsp.a(alt_lseek.o)
 .debug_line    0x00008850       0x9e ../final_sf_bsp//libhal_bsp.a(alt_main.o)
 .debug_line    0x000088ee      0x161 ../final_sf_bsp//libhal_bsp.a(alt_malloc_lock.o)
 .debug_line    0x00008a4f      0x128 ../final_sf_bsp//libhal_bsp.a(alt_open.o)
 .debug_line    0x00008b77      0x21b ../final_sf_bsp//libhal_bsp.a(alt_read.o)
 .debug_line    0x00008d92       0xb0 ../final_sf_bsp//libhal_bsp.a(alt_release_fd.o)
 .debug_line    0x00008e42      0x125 ../final_sf_bsp//libhal_bsp.a(alt_sbrk.o)
 .debug_line    0x00008f67       0xdf ../final_sf_bsp//libhal_bsp.a(alt_usleep.o)
 .debug_line    0x00009046      0x21a ../final_sf_bsp//libhal_bsp.a(alt_write.o)
 .debug_line    0x00009260      0x18a ../final_sf_bsp//libhal_bsp.a(alt_sys_init.o)
 .debug_line    0x000093ea      0x114 ../final_sf_bsp//libhal_bsp.a(altera_avalon_jtag_uart_fd.o)
 .debug_line    0x000094fe      0x101 ../final_sf_bsp//libhal_bsp.a(altera_avalon_jtag_uart_read.o)
 .debug_line    0x000095ff       0xf8 ../final_sf_bsp//libhal_bsp.a(altera_avalon_jtag_uart_write.o)
 .debug_line    0x000096f7       0xfd ../final_sf_bsp//libhal_bsp.a(altera_avalon_timer_sc.o)
 .debug_line    0x000097f4       0xe7 ../final_sf_bsp//libhal_bsp.a(altera_avalon_uart_fd.o)
 .debug_line    0x000098db       0xf7 ../final_sf_bsp//libhal_bsp.a(altera_avalon_uart_read.o)
 .debug_line    0x000099d2       0xff ../final_sf_bsp//libhal_bsp.a(altera_avalon_uart_write.o)
 .debug_line    0x00009ad1      0x270 ../final_sf_bsp//libhal_bsp.a(altera_hostfs.o)
 .debug_line    0x00009d41       0xa0 ../final_sf_bsp//libhal_bsp.a(alt_busy_sleep.o)
 .debug_line    0x00009de1       0x61 ../final_sf_bsp//libhal_bsp.a(alt_dcache_flush_all.o)
 .debug_line    0x00009e42       0xd0 ../final_sf_bsp//libhal_bsp.a(alt_dev_llist_insert.o)
 .debug_line    0x00009f12       0xb9 ../final_sf_bsp//libhal_bsp.a(alt_find_dev.o)
 .debug_line    0x00009fcb       0xd5 ../final_sf_bsp//libhal_bsp.a(alt_find_file.o)
 .debug_line    0x0000a0a0       0xb6 ../final_sf_bsp//libhal_bsp.a(alt_fs_reg.o)
 .debug_line    0x0000a156       0xd4 ../final_sf_bsp//libhal_bsp.a(alt_get_fd.o)
 .debug_line    0x0000a22a       0x50 ../final_sf_bsp//libhal_bsp.a(alt_icache_flush_all.o)
 .debug_line    0x0000a27a       0xed ../final_sf_bsp//libhal_bsp.a(alt_iic.o)
 .debug_line    0x0000a367       0xdb ../final_sf_bsp//libhal_bsp.a(alt_iic_isr_register.o)
 .debug_line    0x0000a442      0x167 ../final_sf_bsp//libhal_bsp.a(alt_io_redirect.o)
 .debug_line    0x0000a5a9       0x6b ../final_sf_bsp//libhal_bsp.a(alt_irq_entry.o)
 .debug_line    0x0000a614       0xae ../final_sf_bsp//libhal_bsp.a(alt_irq_handler.o)
 .debug_line    0x0000a6c2       0x50 ../final_sf_bsp//libhal_bsp.a(alt_irq_vars.o)
 .debug_line    0x0000a712      0x102 ../final_sf_bsp//libhal_bsp.a(alt_tick.o)
 .debug_line    0x0000a814       0x51 ../final_sf_bsp//libhal_bsp.a(altera_nios2_qsys_irq.o)
 .debug_line    0x0000a865       0xab ../final_sf_bsp//libhal_bsp.a(alt_exception_entry.o)
 .debug_line    0x0000a910       0x81 ../final_sf_bsp//libhal_bsp.a(alt_icache_flush.o)
 .debug_line    0x0000a991      0x21c /home/pcmonkey/altera/13.1/nios2eds/bin/gnu/H-i686-pc-linux-gnu/bin/../lib/gcc/nios2-elf/4.7.3/../../../../../H-i686-pc-linux-gnu/nios2-elf/lib/mno-hw-mul/libc.a(lib_a-exit.o)
 .debug_line    0x0000abad      0x190 /home/pcmonkey/altera/13.1/nios2eds/bin/gnu/H-i686-pc-linux-gnu/bin/../lib/gcc/nios2-elf/4.7.3/../../../../../H-i686-pc-linux-gnu/nios2-elf/lib/mno-hw-mul/libc.a(lib_a-memcmp.o)
 .debug_line    0x0000ad3d      0x267 /home/pcmonkey/altera/13.1/nios2eds/bin/gnu/H-i686-pc-linux-gnu/bin/../lib/gcc/nios2-elf/4.7.3/../../../../../H-i686-pc-linux-gnu/nios2-elf/lib/mno-hw-mul/libc.a(lib_a-__call_atexit.o)
 .debug_line    0x0000afa4       0x71 ../final_sf_bsp//libhal_bsp.a(alt_exit.o)

.debug_frame    0x00000000     0x1b38
 *(.debug_frame)
 .debug_frame   0x00000000      0x1d8 obj/default/umain.o
 .debug_frame   0x000001d8       0x20 /home/pcmonkey/altera/13.1/nios2eds/bin/gnu/H-i686-pc-linux-gnu/bin/../lib/gcc/nios2-elf/4.7.3/mno-hw-mul/libgcc.a(lib2-mul.o)
 .debug_frame   0x000001f8       0x3c /home/pcmonkey/altera/13.1/nios2eds/bin/gnu/H-i686-pc-linux-gnu/bin/../lib/gcc/nios2-elf/4.7.3/../../../../../H-i686-pc-linux-gnu/nios2-elf/lib/mno-hw-mul/libc.a(lib_a-fclose.o)
 .debug_frame   0x00000234       0x40 /home/pcmonkey/altera/13.1/nios2eds/bin/gnu/H-i686-pc-linux-gnu/bin/../lib/gcc/nios2-elf/4.7.3/../../../../../H-i686-pc-linux-gnu/nios2-elf/lib/mno-hw-mul/libc.a(lib_a-fflush.o)
 .debug_frame   0x00000274      0x100 /home/pcmonkey/altera/13.1/nios2eds/bin/gnu/H-i686-pc-linux-gnu/bin/../lib/gcc/nios2-elf/4.7.3/../../../../../H-i686-pc-linux-gnu/nios2-elf/lib/mno-hw-mul/libc.a(lib_a-findfp.o)
 .debug_frame   0x00000374       0x40 /home/pcmonkey/altera/13.1/nios2eds/bin/gnu/H-i686-pc-linux-gnu/bin/../lib/gcc/nios2-elf/4.7.3/../../../../../H-i686-pc-linux-gnu/nios2-elf/lib/mno-hw-mul/libc.a(lib_a-fopen.o)
 .debug_frame   0x000003b4       0x40 /home/pcmonkey/altera/13.1/nios2eds/bin/gnu/H-i686-pc-linux-gnu/bin/../lib/gcc/nios2-elf/4.7.3/../../../../../H-i686-pc-linux-gnu/nios2-elf/lib/mno-hw-mul/libc.a(lib_a-fprintf.o)
 .debug_frame   0x000003f4       0x4c /home/pcmonkey/altera/13.1/nios2eds/bin/gnu/H-i686-pc-linux-gnu/bin/../lib/gcc/nios2-elf/4.7.3/../../../../../H-i686-pc-linux-gnu/nios2-elf/lib/mno-hw-mul/libc.a(lib_a-freer.o)
 .debug_frame   0x00000440       0x48 /home/pcmonkey/altera/13.1/nios2eds/bin/gnu/H-i686-pc-linux-gnu/bin/../lib/gcc/nios2-elf/4.7.3/../../../../../H-i686-pc-linux-gnu/nios2-elf/lib/mno-hw-mul/libc.a(lib_a-fseek.o)
 .debug_frame   0x00000488       0x2c /home/pcmonkey/altera/13.1/nios2eds/bin/gnu/H-i686-pc-linux-gnu/bin/../lib/gcc/nios2-elf/4.7.3/../../../../../H-i686-pc-linux-gnu/nios2-elf/lib/mno-hw-mul/libc.a(lib_a-fstatr.o)
 .debug_frame   0x000004b4       0x5c /home/pcmonkey/altera/13.1/nios2eds/bin/gnu/H-i686-pc-linux-gnu/bin/../lib/gcc/nios2-elf/4.7.3/../../../../../H-i686-pc-linux-gnu/nios2-elf/lib/mno-hw-mul/libc.a(lib_a-fwalk.o)
 .debug_frame   0x00000510       0x2c /home/pcmonkey/altera/13.1/nios2eds/bin/gnu/H-i686-pc-linux-gnu/bin/../lib/gcc/nios2-elf/4.7.3/../../../../../H-i686-pc-linux-gnu/nios2-elf/lib/mno-hw-mul/libc.a(lib_a-makebuf.o)
 .debug_frame   0x0000053c       0x38 /home/pcmonkey/altera/13.1/nios2eds/bin/gnu/H-i686-pc-linux-gnu/bin/../lib/gcc/nios2-elf/4.7.3/../../../../../H-i686-pc-linux-gnu/nios2-elf/lib/mno-hw-mul/libc.a(lib_a-mallocr.o)
 .debug_frame   0x00000574       0x20 /home/pcmonkey/altera/13.1/nios2eds/bin/gnu/H-i686-pc-linux-gnu/bin/../lib/gcc/nios2-elf/4.7.3/../../../../../H-i686-pc-linux-gnu/nios2-elf/lib/mno-hw-mul/libc.a(lib_a-memset.o)
 .debug_frame   0x00000594       0x2c /home/pcmonkey/altera/13.1/nios2eds/bin/gnu/H-i686-pc-linux-gnu/bin/../lib/gcc/nios2-elf/4.7.3/../../../../../H-i686-pc-linux-gnu/nios2-elf/lib/mno-hw-mul/libc.a(lib_a-openr.o)
 .debug_frame   0x000005c0       0x3c /home/pcmonkey/altera/13.1/nios2eds/bin/gnu/H-i686-pc-linux-gnu/bin/../lib/gcc/nios2-elf/4.7.3/../../../../../H-i686-pc-linux-gnu/nios2-elf/lib/mno-hw-mul/libc.a(lib_a-puts.o)
 .debug_frame   0x000005fc       0x3c /home/pcmonkey/altera/13.1/nios2eds/bin/gnu/H-i686-pc-linux-gnu/bin/../lib/gcc/nios2-elf/4.7.3/../../../../../H-i686-pc-linux-gnu/nios2-elf/lib/mno-hw-mul/libc.a(lib_a-refill.o)
 .debug_frame   0x00000638       0x2c /home/pcmonkey/altera/13.1/nios2eds/bin/gnu/H-i686-pc-linux-gnu/bin/../lib/gcc/nios2-elf/4.7.3/../../../../../H-i686-pc-linux-gnu/nios2-elf/lib/mno-hw-mul/libc.a(lib_a-sbrkr.o)
 .debug_frame   0x00000664       0x78 /home/pcmonkey/altera/13.1/nios2eds/bin/gnu/H-i686-pc-linux-gnu/bin/../lib/gcc/nios2-elf/4.7.3/../../../../../H-i686-pc-linux-gnu/nios2-elf/lib/mno-hw-mul/libc.a(lib_a-stdio.o)
 .debug_frame   0x000006dc       0x20 /home/pcmonkey/altera/13.1/nios2eds/bin/gnu/H-i686-pc-linux-gnu/bin/../lib/gcc/nios2-elf/4.7.3/../../../../../H-i686-pc-linux-gnu/nios2-elf/lib/mno-hw-mul/libc.a(lib_a-strlen.o)
 .debug_frame   0x000006fc       0x64 /home/pcmonkey/altera/13.1/nios2eds/bin/gnu/H-i686-pc-linux-gnu/bin/../lib/gcc/nios2-elf/4.7.3/../../../../../H-i686-pc-linux-gnu/nios2-elf/lib/mno-hw-mul/libc.a(lib_a-vfprintf.o)
 .debug_frame   0x00000760       0x2c /home/pcmonkey/altera/13.1/nios2eds/bin/gnu/H-i686-pc-linux-gnu/bin/../lib/gcc/nios2-elf/4.7.3/../../../../../H-i686-pc-linux-gnu/nios2-elf/lib/mno-hw-mul/libc.a(lib_a-writer.o)
 .debug_frame   0x0000078c       0x2c /home/pcmonkey/altera/13.1/nios2eds/bin/gnu/H-i686-pc-linux-gnu/bin/../lib/gcc/nios2-elf/4.7.3/../../../../../H-i686-pc-linux-gnu/nios2-elf/lib/mno-hw-mul/libc.a(lib_a-wsetup.o)
 .debug_frame   0x000007b8       0x2c /home/pcmonkey/altera/13.1/nios2eds/bin/gnu/H-i686-pc-linux-gnu/bin/../lib/gcc/nios2-elf/4.7.3/../../../../../H-i686-pc-linux-gnu/nios2-elf/lib/mno-hw-mul/libc.a(lib_a-closer.o)
 .debug_frame   0x000007e4       0x68 /home/pcmonkey/altera/13.1/nios2eds/bin/gnu/H-i686-pc-linux-gnu/bin/../lib/gcc/nios2-elf/4.7.3/../../../../../H-i686-pc-linux-gnu/nios2-elf/lib/mno-hw-mul/libc.a(lib_a-dtoa.o)
 .debug_frame   0x0000084c       0x20 /home/pcmonkey/altera/13.1/nios2eds/bin/gnu/H-i686-pc-linux-gnu/bin/../lib/gcc/nios2-elf/4.7.3/../../../../../H-i686-pc-linux-gnu/nios2-elf/lib/mno-hw-mul/libc.a(lib_a-flags.o)
 .debug_frame   0x0000086c       0x38 /home/pcmonkey/altera/13.1/nios2eds/bin/gnu/H-i686-pc-linux-gnu/bin/../lib/gcc/nios2-elf/4.7.3/../../../../../H-i686-pc-linux-gnu/nios2-elf/lib/mno-hw-mul/libc.a(lib_a-fvwrite.o)
 .debug_frame   0x000008a4       0x2c /home/pcmonkey/altera/13.1/nios2eds/bin/gnu/H-i686-pc-linux-gnu/bin/../lib/gcc/nios2-elf/4.7.3/../../../../../H-i686-pc-linux-gnu/nios2-elf/lib/mno-hw-mul/libc.a(lib_a-isattyr.o)
 .debug_frame   0x000008d0       0x6c /home/pcmonkey/altera/13.1/nios2eds/bin/gnu/H-i686-pc-linux-gnu/bin/../lib/gcc/nios2-elf/4.7.3/../../../../../H-i686-pc-linux-gnu/nios2-elf/lib/mno-hw-mul/libc.a(lib_a-locale.o)
 .debug_frame   0x0000093c       0x2c /home/pcmonkey/altera/13.1/nios2eds/bin/gnu/H-i686-pc-linux-gnu/bin/../lib/gcc/nios2-elf/4.7.3/../../../../../H-i686-pc-linux-gnu/nios2-elf/lib/mno-hw-mul/libc.a(lib_a-lseekr.o)
 .debug_frame   0x00000968       0x20 /home/pcmonkey/altera/13.1/nios2eds/bin/gnu/H-i686-pc-linux-gnu/bin/../lib/gcc/nios2-elf/4.7.3/../../../../../H-i686-pc-linux-gnu/nios2-elf/lib/mno-hw-mul/libc.a(lib_a-memchr.o)
 .debug_frame   0x00000988       0x30 /home/pcmonkey/altera/13.1/nios2eds/bin/gnu/H-i686-pc-linux-gnu/bin/../lib/gcc/nios2-elf/4.7.3/../../../../../H-i686-pc-linux-gnu/nios2-elf/lib/mno-hw-mul/libc.a(lib_a-memcpy.o)
 .debug_frame   0x000009b8       0x30 /home/pcmonkey/altera/13.1/nios2eds/bin/gnu/H-i686-pc-linux-gnu/bin/../lib/gcc/nios2-elf/4.7.3/../../../../../H-i686-pc-linux-gnu/nios2-elf/lib/mno-hw-mul/libc.a(lib_a-memmove.o)
 .debug_frame   0x000009e8      0x218 /home/pcmonkey/altera/13.1/nios2eds/bin/gnu/H-i686-pc-linux-gnu/bin/../lib/gcc/nios2-elf/4.7.3/../../../../../H-i686-pc-linux-gnu/nios2-elf/lib/mno-hw-mul/libc.a(lib_a-mprec.o)
 .debug_frame   0x00000c00       0x2c /home/pcmonkey/altera/13.1/nios2eds/bin/gnu/H-i686-pc-linux-gnu/bin/../lib/gcc/nios2-elf/4.7.3/../../../../../H-i686-pc-linux-gnu/nios2-elf/lib/mno-hw-mul/libc.a(lib_a-readr.o)
 .debug_frame   0x00000c2c       0x38 /home/pcmonkey/altera/13.1/nios2eds/bin/gnu/H-i686-pc-linux-gnu/bin/../lib/gcc/nios2-elf/4.7.3/../../../../../H-i686-pc-linux-gnu/nios2-elf/lib/mno-hw-mul/libc.a(lib_a-reallocr.o)
 .debug_frame   0x00000c64       0x20 /home/pcmonkey/altera/13.1/nios2eds/bin/gnu/H-i686-pc-linux-gnu/bin/../lib/gcc/nios2-elf/4.7.3/../../../../../H-i686-pc-linux-gnu/nios2-elf/lib/mno-hw-mul/libc.a(lib_a-s_isinfd.o)
 .debug_frame   0x00000c84       0x20 /home/pcmonkey/altera/13.1/nios2eds/bin/gnu/H-i686-pc-linux-gnu/bin/../lib/gcc/nios2-elf/4.7.3/../../../../../H-i686-pc-linux-gnu/nios2-elf/lib/mno-hw-mul/libc.a(lib_a-s_isnand.o)
 .debug_frame   0x00000ca4       0x20 /home/pcmonkey/altera/13.1/nios2eds/bin/gnu/H-i686-pc-linux-gnu/bin/../lib/gcc/nios2-elf/4.7.3/../../../../../H-i686-pc-linux-gnu/nios2-elf/lib/mno-hw-mul/libc.a(lib_a-strcmp.o)
 .debug_frame   0x00000cc4       0x2c /home/pcmonkey/altera/13.1/nios2eds/bin/gnu/H-i686-pc-linux-gnu/bin/../lib/gcc/nios2-elf/4.7.3/../../../../../H-i686-pc-linux-gnu/nios2-elf/lib/mno-hw-mul/libc.a(lib_a-callocr.o)
 .debug_frame   0x00000cf0       0x38 /home/pcmonkey/altera/13.1/nios2eds/bin/gnu/H-i686-pc-linux-gnu/bin/../lib/gcc/nios2-elf/4.7.3/mno-hw-mul/libgcc.a(_udivdi3.o)
 .debug_frame   0x00000d28       0x38 /home/pcmonkey/altera/13.1/nios2eds/bin/gnu/H-i686-pc-linux-gnu/bin/../lib/gcc/nios2-elf/4.7.3/mno-hw-mul/libgcc.a(_umoddi3.o)
 .debug_frame   0x00000d60       0x50 /home/pcmonkey/altera/13.1/nios2eds/bin/gnu/H-i686-pc-linux-gnu/bin/../lib/gcc/nios2-elf/4.7.3/mno-hw-mul/libgcc.a(_addsub_df.o)
 .debug_frame   0x00000db0       0x38 /home/pcmonkey/altera/13.1/nios2eds/bin/gnu/H-i686-pc-linux-gnu/bin/../lib/gcc/nios2-elf/4.7.3/mno-hw-mul/libgcc.a(_mul_df.o)
 .debug_frame   0x00000de8       0x28 /home/pcmonkey/altera/13.1/nios2eds/bin/gnu/H-i686-pc-linux-gnu/bin/../lib/gcc/nios2-elf/4.7.3/mno-hw-mul/libgcc.a(_div_df.o)
 .debug_frame   0x00000e10       0x28 /home/pcmonkey/altera/13.1/nios2eds/bin/gnu/H-i686-pc-linux-gnu/bin/../lib/gcc/nios2-elf/4.7.3/mno-hw-mul/libgcc.a(_eq_df.o)
 .debug_frame   0x00000e38       0x28 /home/pcmonkey/altera/13.1/nios2eds/bin/gnu/H-i686-pc-linux-gnu/bin/../lib/gcc/nios2-elf/4.7.3/mno-hw-mul/libgcc.a(_ne_df.o)
 .debug_frame   0x00000e60       0x28 /home/pcmonkey/altera/13.1/nios2eds/bin/gnu/H-i686-pc-linux-gnu/bin/../lib/gcc/nios2-elf/4.7.3/mno-hw-mul/libgcc.a(_gt_df.o)
 .debug_frame   0x00000e88       0x28 /home/pcmonkey/altera/13.1/nios2eds/bin/gnu/H-i686-pc-linux-gnu/bin/../lib/gcc/nios2-elf/4.7.3/mno-hw-mul/libgcc.a(_ge_df.o)
 .debug_frame   0x00000eb0       0x28 /home/pcmonkey/altera/13.1/nios2eds/bin/gnu/H-i686-pc-linux-gnu/bin/../lib/gcc/nios2-elf/4.7.3/mno-hw-mul/libgcc.a(_lt_df.o)
 .debug_frame   0x00000ed8       0x28 /home/pcmonkey/altera/13.1/nios2eds/bin/gnu/H-i686-pc-linux-gnu/bin/../lib/gcc/nios2-elf/4.7.3/mno-hw-mul/libgcc.a(_si_to_df.o)
 .debug_frame   0x00000f00       0x28 /home/pcmonkey/altera/13.1/nios2eds/bin/gnu/H-i686-pc-linux-gnu/bin/../lib/gcc/nios2-elf/4.7.3/mno-hw-mul/libgcc.a(_df_to_si.o)
 .debug_frame   0x00000f28       0x28 /home/pcmonkey/altera/13.1/nios2eds/bin/gnu/H-i686-pc-linux-gnu/bin/../lib/gcc/nios2-elf/4.7.3/mno-hw-mul/libgcc.a(_usi_to_df.o)
 .debug_frame   0x00000f50       0x70 /home/pcmonkey/altera/13.1/nios2eds/bin/gnu/H-i686-pc-linux-gnu/bin/../lib/gcc/nios2-elf/4.7.3/mno-hw-mul/libgcc.a(lib2-divmod.o)
 .debug_frame   0x00000fc0       0x3c /home/pcmonkey/altera/13.1/nios2eds/bin/gnu/H-i686-pc-linux-gnu/bin/../lib/gcc/nios2-elf/4.7.3/mno-hw-mul/libgcc.a(_muldi3.o)
 .debug_frame   0x00000ffc       0x20 /home/pcmonkey/altera/13.1/nios2eds/bin/gnu/H-i686-pc-linux-gnu/bin/../lib/gcc/nios2-elf/4.7.3/mno-hw-mul/libgcc.a(_clzsi2.o)
 .debug_frame   0x0000101c       0x34 /home/pcmonkey/altera/13.1/nios2eds/bin/gnu/H-i686-pc-linux-gnu/bin/../lib/gcc/nios2-elf/4.7.3/mno-hw-mul/libgcc.a(_pack_df.o)
 .debug_frame   0x00001050       0x20 /home/pcmonkey/altera/13.1/nios2eds/bin/gnu/H-i686-pc-linux-gnu/bin/../lib/gcc/nios2-elf/4.7.3/mno-hw-mul/libgcc.a(_unpack_df.o)
 .debug_frame   0x00001070       0x20 /home/pcmonkey/altera/13.1/nios2eds/bin/gnu/H-i686-pc-linux-gnu/bin/../lib/gcc/nios2-elf/4.7.3/mno-hw-mul/libgcc.a(_fpcmp_parts_df.o)
 .debug_frame   0x00001090       0x20 /home/pcmonkey/altera/13.1/nios2eds/bin/gnu/H-i686-pc-linux-gnu/bin/../lib/gcc/nios2-elf/4.7.3/mno-hw-mul/libgcc.a(_lshrdi3.o)
 .debug_frame   0x000010b0       0x20 /home/pcmonkey/altera/13.1/nios2eds/bin/gnu/H-i686-pc-linux-gnu/bin/../lib/gcc/nios2-elf/4.7.3/mno-hw-mul/libgcc.a(_ashldi3.o)
 .debug_frame   0x000010d0       0x48 ../final_sf_bsp//libhal_bsp.a(alt_close.o)
 .debug_frame   0x00001118       0x2c ../final_sf_bsp//libhal_bsp.a(alt_dev.o)
 .debug_frame   0x00001144       0x48 ../final_sf_bsp//libhal_bsp.a(alt_fstat.o)
 .debug_frame   0x0000118c       0x48 ../final_sf_bsp//libhal_bsp.a(alt_isatty.o)
 .debug_frame   0x000011d4       0x48 ../final_sf_bsp//libhal_bsp.a(alt_load.o)
 .debug_frame   0x0000121c       0x48 ../final_sf_bsp//libhal_bsp.a(alt_lseek.o)
 .debug_frame   0x00001264       0x2c ../final_sf_bsp//libhal_bsp.a(alt_main.o)
 .debug_frame   0x00001290       0x48 ../final_sf_bsp//libhal_bsp.a(alt_malloc_lock.o)
 .debug_frame   0x000012d8       0x68 ../final_sf_bsp//libhal_bsp.a(alt_open.o)
 .debug_frame   0x00001340       0x48 ../final_sf_bsp//libhal_bsp.a(alt_read.o)
 .debug_frame   0x00001388       0x30 ../final_sf_bsp//libhal_bsp.a(alt_release_fd.o)
 .debug_frame   0x000013b8       0x2c ../final_sf_bsp//libhal_bsp.a(alt_sbrk.o)
 .debug_frame   0x000013e4       0x2c ../final_sf_bsp//libhal_bsp.a(alt_usleep.o)
 .debug_frame   0x00001410       0x48 ../final_sf_bsp//libhal_bsp.a(alt_write.o)
 .debug_frame   0x00001458       0x64 ../final_sf_bsp//libhal_bsp.a(alt_sys_init.o)
 .debug_frame   0x000014bc       0x48 ../final_sf_bsp//libhal_bsp.a(altera_avalon_jtag_uart_fd.o)
 .debug_frame   0x00001504       0x2c ../final_sf_bsp//libhal_bsp.a(altera_avalon_jtag_uart_read.o)
 .debug_frame   0x00001530       0x2c ../final_sf_bsp//libhal_bsp.a(altera_avalon_jtag_uart_write.o)
 .debug_frame   0x0000155c       0x48 ../final_sf_bsp//libhal_bsp.a(altera_avalon_timer_sc.o)
 .debug_frame   0x000015a4       0x48 ../final_sf_bsp//libhal_bsp.a(altera_avalon_uart_fd.o)
 .debug_frame   0x000015ec       0x48 ../final_sf_bsp//libhal_bsp.a(altera_avalon_uart_read.o)
 .debug_frame   0x00001634       0x48 ../final_sf_bsp//libhal_bsp.a(altera_avalon_uart_write.o)
 .debug_frame   0x0000167c       0xcc ../final_sf_bsp//libhal_bsp.a(altera_hostfs.o)
 .debug_frame   0x00001748       0x2c ../final_sf_bsp//libhal_bsp.a(alt_busy_sleep.o)
 .debug_frame   0x00001774       0x2c ../final_sf_bsp//libhal_bsp.a(alt_dcache_flush_all.o)
 .debug_frame   0x000017a0       0x48 ../final_sf_bsp//libhal_bsp.a(alt_dev_llist_insert.o)
 .debug_frame   0x000017e8       0x2c ../final_sf_bsp//libhal_bsp.a(alt_find_dev.o)
 .debug_frame   0x00001814       0x2c ../final_sf_bsp//libhal_bsp.a(alt_find_file.o)
 .debug_frame   0x00001840       0x2c ../final_sf_bsp//libhal_bsp.a(alt_fs_reg.o)
 .debug_frame   0x0000186c       0x30 ../final_sf_bsp//libhal_bsp.a(alt_get_fd.o)
 .debug_frame   0x0000189c       0x2c ../final_sf_bsp//libhal_bsp.a(alt_icache_flush_all.o)
 .debug_frame   0x000018c8       0x80 ../final_sf_bsp//libhal_bsp.a(alt_iic.o)
 .debug_frame   0x00001948       0x2c ../final_sf_bsp//libhal_bsp.a(alt_iic_isr_register.o)
 .debug_frame   0x00001974       0x4c ../final_sf_bsp//libhal_bsp.a(alt_io_redirect.o)
 .debug_frame   0x000019c0       0x2c ../final_sf_bsp//libhal_bsp.a(alt_irq_handler.o)
 .debug_frame   0x000019ec       0x48 ../final_sf_bsp//libhal_bsp.a(alt_tick.o)
 .debug_frame   0x00001a34       0x2c ../final_sf_bsp//libhal_bsp.a(altera_nios2_qsys_irq.o)
 .debug_frame   0x00001a60       0x2c ../final_sf_bsp//libhal_bsp.a(alt_icache_flush.o)
 .debug_frame   0x00001a8c       0x28 /home/pcmonkey/altera/13.1/nios2eds/bin/gnu/H-i686-pc-linux-gnu/bin/../lib/gcc/nios2-elf/4.7.3/../../../../../H-i686-pc-linux-gnu/nios2-elf/lib/mno-hw-mul/libc.a(lib_a-exit.o)
 .debug_frame   0x00001ab4       0x20 /home/pcmonkey/altera/13.1/nios2eds/bin/gnu/H-i686-pc-linux-gnu/bin/../lib/gcc/nios2-elf/4.7.3/../../../../../H-i686-pc-linux-gnu/nios2-elf/lib/mno-hw-mul/libc.a(lib_a-memcmp.o)
 .debug_frame   0x00001ad4       0x38 /home/pcmonkey/altera/13.1/nios2eds/bin/gnu/H-i686-pc-linux-gnu/bin/../lib/gcc/nios2-elf/4.7.3/../../../../../H-i686-pc-linux-gnu/nios2-elf/lib/mno-hw-mul/libc.a(lib_a-__call_atexit.o)
 .debug_frame   0x00001b0c       0x2c ../final_sf_bsp//libhal_bsp.a(alt_exit.o)

.debug_str      0x00000000     0x2eec
 *(.debug_str)
 .debug_str     0x00000000      0x436 obj/default/umain.o
                                0x4f3 (size before relaxing)
 .debug_str     0x00000436       0xd4 /home/pcmonkey/altera/13.1/nios2eds/bin/gnu/H-i686-pc-linux-gnu/bin/../lib/gcc/nios2-elf/4.7.3/mno-hw-mul/libgcc.a(lib2-mul.o)
                                0x12b (size before relaxing)
 .debug_str     0x0000050a      0x12d /home/pcmonkey/altera/13.1/nios2eds/bin/gnu/H-i686-pc-linux-gnu/bin/../lib/gcc/nios2-elf/4.7.3/../../../../../H-i686-pc-linux-gnu/nios2-elf/lib/mno-hw-mul/libc.a(lib_a-fclose.o)
                                0x571 (size before relaxing)
 .debug_str     0x00000637       0x5e /home/pcmonkey/altera/13.1/nios2eds/bin/gnu/H-i686-pc-linux-gnu/bin/../lib/gcc/nios2-elf/4.7.3/../../../../../H-i686-pc-linux-gnu/nios2-elf/lib/mno-hw-mul/libc.a(lib_a-fflush.o)
                                0x562 (size before relaxing)
 .debug_str     0x00000695       0xe8 /home/pcmonkey/altera/13.1/nios2eds/bin/gnu/H-i686-pc-linux-gnu/bin/../lib/gcc/nios2-elf/4.7.3/../../../../../H-i686-pc-linux-gnu/nios2-elf/lib/mno-hw-mul/libc.a(lib_a-findfp.o)
                                0x62e (size before relaxing)
 .debug_str     0x0000077d       0x6c /home/pcmonkey/altera/13.1/nios2eds/bin/gnu/H-i686-pc-linux-gnu/bin/../lib/gcc/nios2-elf/4.7.3/../../../../../H-i686-pc-linux-gnu/nios2-elf/lib/mno-hw-mul/libc.a(lib_a-fopen.o)
                                0x586 (size before relaxing)
 .debug_str     0x000007e9       0x86 /home/pcmonkey/altera/13.1/nios2eds/bin/gnu/H-i686-pc-linux-gnu/bin/../lib/gcc/nios2-elf/4.7.3/../../../../../H-i686-pc-linux-gnu/nios2-elf/lib/mno-hw-mul/libc.a(lib_a-fprintf.o)
                                0x560 (size before relaxing)
 .debug_str     0x0000086f      0x221 /home/pcmonkey/altera/13.1/nios2eds/bin/gnu/H-i686-pc-linux-gnu/bin/../lib/gcc/nios2-elf/4.7.3/../../../../../H-i686-pc-linux-gnu/nios2-elf/lib/mno-hw-mul/libc.a(lib_a-freer.o)
                                0x68e (size before relaxing)
 .debug_str     0x00000a90       0xe9 /home/pcmonkey/altera/13.1/nios2eds/bin/gnu/H-i686-pc-linux-gnu/bin/../lib/gcc/nios2-elf/4.7.3/../../../../../H-i686-pc-linux-gnu/nios2-elf/lib/mno-hw-mul/libc.a(lib_a-fseek.o)
                                0x689 (size before relaxing)
 .debug_str     0x00000b79       0xdd /home/pcmonkey/altera/13.1/nios2eds/bin/gnu/H-i686-pc-linux-gnu/bin/../lib/gcc/nios2-elf/4.7.3/../../../../../H-i686-pc-linux-gnu/nios2-elf/lib/mno-hw-mul/libc.a(lib_a-fstatr.o)
                                0x612 (size before relaxing)
 .debug_str     0x00000c56       0x61 /home/pcmonkey/altera/13.1/nios2eds/bin/gnu/H-i686-pc-linux-gnu/bin/../lib/gcc/nios2-elf/4.7.3/../../../../../H-i686-pc-linux-gnu/nios2-elf/lib/mno-hw-mul/libc.a(lib_a-fwalk.o)
                                0x576 (size before relaxing)
 .debug_str     0x00000cb7       0x49 /home/pcmonkey/altera/13.1/nios2eds/bin/gnu/H-i686-pc-linux-gnu/bin/../lib/gcc/nios2-elf/4.7.3/../../../../../H-i686-pc-linux-gnu/nios2-elf/lib/mno-hw-mul/libc.a(lib_a-impure.o)
                                0x535 (size before relaxing)
 .debug_str     0x00000d00       0x40 /home/pcmonkey/altera/13.1/nios2eds/bin/gnu/H-i686-pc-linux-gnu/bin/../lib/gcc/nios2-elf/4.7.3/../../../../../H-i686-pc-linux-gnu/nios2-elf/lib/mno-hw-mul/libc.a(lib_a-int_errno.o)
                                0x17e (size before relaxing)
 .debug_str     0x00000d40       0x53 /home/pcmonkey/altera/13.1/nios2eds/bin/gnu/H-i686-pc-linux-gnu/bin/../lib/gcc/nios2-elf/4.7.3/../../../../../H-i686-pc-linux-gnu/nios2-elf/lib/mno-hw-mul/libc.a(lib_a-makebuf.o)
                                0x63e (size before relaxing)
 .debug_str     0x00000d93       0xe5 /home/pcmonkey/altera/13.1/nios2eds/bin/gnu/H-i686-pc-linux-gnu/bin/../lib/gcc/nios2-elf/4.7.3/../../../../../H-i686-pc-linux-gnu/nios2-elf/lib/mno-hw-mul/libc.a(lib_a-mallocr.o)
                                0x744 (size before relaxing)
 .debug_str     0x00000e78       0xed /home/pcmonkey/altera/13.1/nios2eds/bin/gnu/H-i686-pc-linux-gnu/bin/../lib/gcc/nios2-elf/4.7.3/../../../../../H-i686-pc-linux-gnu/nios2-elf/lib/mno-hw-mul/libc.a(lib_a-memset.o)
                                0x199 (size before relaxing)
 .debug_str     0x00000f65       0x3c /home/pcmonkey/altera/13.1/nios2eds/bin/gnu/H-i686-pc-linux-gnu/bin/../lib/gcc/nios2-elf/4.7.3/../../../../../H-i686-pc-linux-gnu/nios2-elf/lib/mno-hw-mul/libc.a(lib_a-openr.o)
                                0x52c (size before relaxing)
 .debug_str     0x00000fa1       0x91 /home/pcmonkey/altera/13.1/nios2eds/bin/gnu/H-i686-pc-linux-gnu/bin/../lib/gcc/nios2-elf/4.7.3/../../../../../H-i686-pc-linux-gnu/nios2-elf/lib/mno-hw-mul/libc.a(lib_a-puts.o)
                                0x57d (size before relaxing)
 .debug_str     0x00001032       0x44 /home/pcmonkey/altera/13.1/nios2eds/bin/gnu/H-i686-pc-linux-gnu/bin/../lib/gcc/nios2-elf/4.7.3/../../../../../H-i686-pc-linux-gnu/nios2-elf/lib/mno-hw-mul/libc.a(lib_a-refill.o)
                                0x56a (size before relaxing)
 .debug_str     0x00001076       0x46 /home/pcmonkey/altera/13.1/nios2eds/bin/gnu/H-i686-pc-linux-gnu/bin/../lib/gcc/nios2-elf/4.7.3/../../../../../H-i686-pc-linux-gnu/nios2-elf/lib/mno-hw-mul/libc.a(lib_a-sbrkr.o)
                                0x52b (size before relaxing)
 .debug_str     0x000010bc       0x8a /home/pcmonkey/altera/13.1/nios2eds/bin/gnu/H-i686-pc-linux-gnu/bin/../lib/gcc/nios2-elf/4.7.3/../../../../../H-i686-pc-linux-gnu/nios2-elf/lib/mno-hw-mul/libc.a(lib_a-stdio.o)
                                0x57f (size before relaxing)
 .debug_str     0x00001146       0x3e /home/pcmonkey/altera/13.1/nios2eds/bin/gnu/H-i686-pc-linux-gnu/bin/../lib/gcc/nios2-elf/4.7.3/../../../../../H-i686-pc-linux-gnu/nios2-elf/lib/mno-hw-mul/libc.a(lib_a-strlen.o)
                                0x198 (size before relaxing)
 .debug_str     0x00001184      0x292 /home/pcmonkey/altera/13.1/nios2eds/bin/gnu/H-i686-pc-linux-gnu/bin/../lib/gcc/nios2-elf/4.7.3/../../../../../H-i686-pc-linux-gnu/nios2-elf/lib/mno-hw-mul/libc.a(lib_a-vfprintf.o)
                                0x897 (size before relaxing)
 .debug_str     0x00001416       0x3d /home/pcmonkey/altera/13.1/nios2eds/bin/gnu/H-i686-pc-linux-gnu/bin/../lib/gcc/nios2-elf/4.7.3/../../../../../H-i686-pc-linux-gnu/nios2-elf/lib/mno-hw-mul/libc.a(lib_a-writer.o)
                                0x52f (size before relaxing)
 .debug_str     0x00001453       0x3d /home/pcmonkey/altera/13.1/nios2eds/bin/gnu/H-i686-pc-linux-gnu/bin/../lib/gcc/nios2-elf/4.7.3/../../../../../H-i686-pc-linux-gnu/nios2-elf/lib/mno-hw-mul/libc.a(lib_a-wsetup.o)
                                0x544 (size before relaxing)
 .debug_str     0x00001490       0x3d /home/pcmonkey/altera/13.1/nios2eds/bin/gnu/H-i686-pc-linux-gnu/bin/../lib/gcc/nios2-elf/4.7.3/../../../../../H-i686-pc-linux-gnu/nios2-elf/lib/mno-hw-mul/libc.a(lib_a-closer.o)
                                0x51f (size before relaxing)
 .debug_str     0x000014cd      0x161 /home/pcmonkey/altera/13.1/nios2eds/bin/gnu/H-i686-pc-linux-gnu/bin/../lib/gcc/nios2-elf/4.7.3/../../../../../H-i686-pc-linux-gnu/nios2-elf/lib/mno-hw-mul/libc.a(lib_a-dtoa.o)
                                0x687 (size before relaxing)
 .debug_str     0x0000162e       0x41 /home/pcmonkey/altera/13.1/nios2eds/bin/gnu/H-i686-pc-linux-gnu/bin/../lib/gcc/nios2-elf/4.7.3/../../../../../H-i686-pc-linux-gnu/nios2-elf/lib/mno-hw-mul/libc.a(lib_a-flags.o)
                                0x51c (size before relaxing)
 .debug_str     0x0000166f       0x6f /home/pcmonkey/altera/13.1/nios2eds/bin/gnu/H-i686-pc-linux-gnu/bin/../lib/gcc/nios2-elf/4.7.3/../../../../../H-i686-pc-linux-gnu/nios2-elf/lib/mno-hw-mul/libc.a(lib_a-fvwrite.o)
                                0x5c7 (size before relaxing)
 .debug_str     0x000016de       0x45 /home/pcmonkey/altera/13.1/nios2eds/bin/gnu/H-i686-pc-linux-gnu/bin/../lib/gcc/nios2-elf/4.7.3/../../../../../H-i686-pc-linux-gnu/nios2-elf/lib/mno-hw-mul/libc.a(lib_a-isattyr.o)
                                0x522 (size before relaxing)
 .debug_str     0x00001723      0x15b /home/pcmonkey/altera/13.1/nios2eds/bin/gnu/H-i686-pc-linux-gnu/bin/../lib/gcc/nios2-elf/4.7.3/../../../../../H-i686-pc-linux-gnu/nios2-elf/lib/mno-hw-mul/libc.a(lib_a-locale.o)
                                0x6cb (size before relaxing)
 .debug_str     0x0000187e       0x43 /home/pcmonkey/altera/13.1/nios2eds/bin/gnu/H-i686-pc-linux-gnu/bin/../lib/gcc/nios2-elf/4.7.3/../../../../../H-i686-pc-linux-gnu/nios2-elf/lib/mno-hw-mul/libc.a(lib_a-lseekr.o)
                                0x533 (size before relaxing)
 .debug_str     0x000018c1       0x4c /home/pcmonkey/altera/13.1/nios2eds/bin/gnu/H-i686-pc-linux-gnu/bin/../lib/gcc/nios2-elf/4.7.3/../../../../../H-i686-pc-linux-gnu/nios2-elf/lib/mno-hw-mul/libc.a(lib_a-memchr.o)
                                0x1a6 (size before relaxing)
 .debug_str     0x0000190d       0x65 /home/pcmonkey/altera/13.1/nios2eds/bin/gnu/H-i686-pc-linux-gnu/bin/../lib/gcc/nios2-elf/4.7.3/../../../../../H-i686-pc-linux-gnu/nios2-elf/lib/mno-hw-mul/libc.a(lib_a-memcpy.o)
                                0x135 (size before relaxing)
 .debug_str     0x00001972       0x48 /home/pcmonkey/altera/13.1/nios2eds/bin/gnu/H-i686-pc-linux-gnu/bin/../lib/gcc/nios2-elf/4.7.3/../../../../../H-i686-pc-linux-gnu/nios2-elf/lib/mno-hw-mul/libc.a(lib_a-memmove.o)
                                0x1b8 (size before relaxing)
 .debug_str     0x000019ba       0xa8 /home/pcmonkey/altera/13.1/nios2eds/bin/gnu/H-i686-pc-linux-gnu/bin/../lib/gcc/nios2-elf/4.7.3/../../../../../H-i686-pc-linux-gnu/nios2-elf/lib/mno-hw-mul/libc.a(lib_a-mprec.o)
                                0x641 (size before relaxing)
 .debug_str     0x00001a62       0x3c /home/pcmonkey/altera/13.1/nios2eds/bin/gnu/H-i686-pc-linux-gnu/bin/../lib/gcc/nios2-elf/4.7.3/../../../../../H-i686-pc-linux-gnu/nios2-elf/lib/mno-hw-mul/libc.a(lib_a-readr.o)
                                0x52c (size before relaxing)
 .debug_str     0x00001a9e       0x4e /home/pcmonkey/altera/13.1/nios2eds/bin/gnu/H-i686-pc-linux-gnu/bin/../lib/gcc/nios2-elf/4.7.3/../../../../../H-i686-pc-linux-gnu/nios2-elf/lib/mno-hw-mul/libc.a(lib_a-reallocr.o)
                                0x616 (size before relaxing)
 .debug_str     0x00001aec       0xe5 /home/pcmonkey/altera/13.1/nios2eds/bin/gnu/H-i686-pc-linux-gnu/bin/../lib/gcc/nios2-elf/4.7.3/../../../../../H-i686-pc-linux-gnu/nios2-elf/lib/mno-hw-mul/libc.a(lib_a-s_isinfd.o)
                                0x1b0 (size before relaxing)
 .debug_str     0x00001bd1       0x40 /home/pcmonkey/altera/13.1/nios2eds/bin/gnu/H-i686-pc-linux-gnu/bin/../lib/gcc/nios2-elf/4.7.3/../../../../../H-i686-pc-linux-gnu/nios2-elf/lib/mno-hw-mul/libc.a(lib_a-s_isnand.o)
                                0x1b0 (size before relaxing)
 .debug_str     0x00001c11       0x3e /home/pcmonkey/altera/13.1/nios2eds/bin/gnu/H-i686-pc-linux-gnu/bin/../lib/gcc/nios2-elf/4.7.3/../../../../../H-i686-pc-linux-gnu/nios2-elf/lib/mno-hw-mul/libc.a(lib_a-strcmp.o)
                                0x17e (size before relaxing)
 .debug_str     0x00001c4f        0xf /home/pcmonkey/altera/13.1/nios2eds/bin/gnu/H-i686-pc-linux-gnu/bin/../lib/gcc/nios2-elf/4.7.3/../../../../../H-i686-pc-linux-gnu/nios2-elf/lib/mno-hw-mul/libc.a(lib_a-callocr.o)
                                0x56e (size before relaxing)
 .debug_str     0x00001c5e       0xd8 /home/pcmonkey/altera/13.1/nios2eds/bin/gnu/H-i686-pc-linux-gnu/bin/../lib/gcc/nios2-elf/4.7.3/mno-hw-mul/libgcc.a(_udivdi3.o)
                                0x205 (size before relaxing)
 .debug_str     0x00001d36        0xa /home/pcmonkey/altera/13.1/nios2eds/bin/gnu/H-i686-pc-linux-gnu/bin/../lib/gcc/nios2-elf/4.7.3/mno-hw-mul/libgcc.a(_umoddi3.o)
                                0x205 (size before relaxing)
 .debug_str     0x00001d40      0x172 /home/pcmonkey/altera/13.1/nios2eds/bin/gnu/H-i686-pc-linux-gnu/bin/../lib/gcc/nios2-elf/4.7.3/mno-hw-mul/libgcc.a(_addsub_df.o)
                                0x2b8 (size before relaxing)
 .debug_str     0x00001eb2       0x40 /home/pcmonkey/altera/13.1/nios2eds/bin/gnu/H-i686-pc-linux-gnu/bin/../lib/gcc/nios2-elf/4.7.3/mno-hw-mul/libgcc.a(_mul_df.o)
                                0x28a (size before relaxing)
 .debug_str     0x00001ef2       0x35 /home/pcmonkey/altera/13.1/nios2eds/bin/gnu/H-i686-pc-linux-gnu/bin/../lib/gcc/nios2-elf/4.7.3/mno-hw-mul/libgcc.a(_div_df.o)
                                0x27a (size before relaxing)
 .debug_str     0x00001f27       0x20 /home/pcmonkey/altera/13.1/nios2eds/bin/gnu/H-i686-pc-linux-gnu/bin/../lib/gcc/nios2-elf/4.7.3/mno-hw-mul/libgcc.a(_eq_df.o)
                                0x247 (size before relaxing)
 .debug_str     0x00001f47        0x8 /home/pcmonkey/altera/13.1/nios2eds/bin/gnu/H-i686-pc-linux-gnu/bin/../lib/gcc/nios2-elf/4.7.3/mno-hw-mul/libgcc.a(_ne_df.o)
                                0x247 (size before relaxing)
 .debug_str     0x00001f4f        0x8 /home/pcmonkey/altera/13.1/nios2eds/bin/gnu/H-i686-pc-linux-gnu/bin/../lib/gcc/nios2-elf/4.7.3/mno-hw-mul/libgcc.a(_gt_df.o)
                                0x247 (size before relaxing)
 .debug_str     0x00001f57        0x8 /home/pcmonkey/altera/13.1/nios2eds/bin/gnu/H-i686-pc-linux-gnu/bin/../lib/gcc/nios2-elf/4.7.3/mno-hw-mul/libgcc.a(_ge_df.o)
                                0x247 (size before relaxing)
 .debug_str     0x00001f5f        0x8 /home/pcmonkey/altera/13.1/nios2eds/bin/gnu/H-i686-pc-linux-gnu/bin/../lib/gcc/nios2-elf/4.7.3/mno-hw-mul/libgcc.a(_lt_df.o)
                                0x247 (size before relaxing)
 .debug_str     0x00001f67       0x21 /home/pcmonkey/altera/13.1/nios2eds/bin/gnu/H-i686-pc-linux-gnu/bin/../lib/gcc/nios2-elf/4.7.3/mno-hw-mul/libgcc.a(_si_to_df.o)
                                0x21d (size before relaxing)
 .debug_str     0x00001f88        0xa /home/pcmonkey/altera/13.1/nios2eds/bin/gnu/H-i686-pc-linux-gnu/bin/../lib/gcc/nios2-elf/4.7.3/mno-hw-mul/libgcc.a(_df_to_si.o)
                                0x23f (size before relaxing)
 .debug_str     0x00000000      0x1d0 /home/pcmonkey/altera/13.1/nios2eds/bin/gnu/H-i686-pc-linux-gnu/bin/../lib/gcc/nios2-elf/4.7.3/mno-hw-mul/libgcc.a(_thenan_df.o)
 .debug_str     0x00001f92       0x14 /home/pcmonkey/altera/13.1/nios2eds/bin/gnu/H-i686-pc-linux-gnu/bin/../lib/gcc/nios2-elf/4.7.3/mno-hw-mul/libgcc.a(_usi_to_df.o)
                                0x219 (size before relaxing)
 .debug_str     0x00001fa6       0x7f /home/pcmonkey/altera/13.1/nios2eds/bin/gnu/H-i686-pc-linux-gnu/bin/../lib/gcc/nios2-elf/4.7.3/mno-hw-mul/libgcc.a(lib2-divmod.o)
                                0x16a (size before relaxing)
 .debug_str     0x00002025        0x9 /home/pcmonkey/altera/13.1/nios2eds/bin/gnu/H-i686-pc-linux-gnu/bin/../lib/gcc/nios2-elf/4.7.3/mno-hw-mul/libgcc.a(_muldi3.o)
                                0x1b1 (size before relaxing)
 .debug_str     0x00000000      0x16f /home/pcmonkey/altera/13.1/nios2eds/bin/gnu/H-i686-pc-linux-gnu/bin/../lib/gcc/nios2-elf/4.7.3/mno-hw-mul/libgcc.a(_clz.o)
 .debug_str     0x00000000      0x18c /home/pcmonkey/altera/13.1/nios2eds/bin/gnu/H-i686-pc-linux-gnu/bin/../lib/gcc/nios2-elf/4.7.3/mno-hw-mul/libgcc.a(_clzsi2.o)
 .debug_str     0x0000202e        0x7 /home/pcmonkey/altera/13.1/nios2eds/bin/gnu/H-i686-pc-linux-gnu/bin/../lib/gcc/nios2-elf/4.7.3/mno-hw-mul/libgcc.a(_pack_df.o)
                                0x233 (size before relaxing)
 .debug_str     0x00000000      0x215 /home/pcmonkey/altera/13.1/nios2eds/bin/gnu/H-i686-pc-linux-gnu/bin/../lib/gcc/nios2-elf/4.7.3/mno-hw-mul/libgcc.a(_unpack_df.o)
 .debug_str     0x00000000      0x1f3 /home/pcmonkey/altera/13.1/nios2eds/bin/gnu/H-i686-pc-linux-gnu/bin/../lib/gcc/nios2-elf/4.7.3/mno-hw-mul/libgcc.a(_fpcmp_parts_df.o)
 .debug_str     0x00002035       0x23 /home/pcmonkey/altera/13.1/nios2eds/bin/gnu/H-i686-pc-linux-gnu/bin/../lib/gcc/nios2-elf/4.7.3/mno-hw-mul/libgcc.a(_lshrdi3.o)
                                0x1a3 (size before relaxing)
 .debug_str     0x00002058        0xa /home/pcmonkey/altera/13.1/nios2eds/bin/gnu/H-i686-pc-linux-gnu/bin/../lib/gcc/nios2-elf/4.7.3/mno-hw-mul/libgcc.a(_ashldi3.o)
                                0x1a3 (size before relaxing)
 .debug_str     0x00002062       0xdf ../final_sf_bsp//libhal_bsp.a(alt_close.o)
                                0x1bc (size before relaxing)
 .debug_str     0x00002141       0x50 ../final_sf_bsp//libhal_bsp.a(alt_dev.o)
                                0x2b6 (size before relaxing)
 .debug_str     0x00002191       0x14 ../final_sf_bsp//libhal_bsp.a(alt_errno.o)
                                 0xf6 (size before relaxing)
 .debug_str     0x000021a5       0x14 ../final_sf_bsp//libhal_bsp.a(alt_fstat.o)
                                0x29d (size before relaxing)
 .debug_str     0x000021b9       0x15 ../final_sf_bsp//libhal_bsp.a(alt_isatty.o)
                                0x2a5 (size before relaxing)
 .debug_str     0x000021ce       0xf1 ../final_sf_bsp//libhal_bsp.a(alt_load.o)
                                0x1c3 (size before relaxing)
 .debug_str     0x000022bf       0x14 ../final_sf_bsp//libhal_bsp.a(alt_lseek.o)
                                0x1c2 (size before relaxing)
 .debug_str     0x000022d3       0x44 ../final_sf_bsp//libhal_bsp.a(alt_main.o)
                                0x14e (size before relaxing)
 .debug_str     0x00002317       0x1a ../final_sf_bsp//libhal_bsp.a(alt_malloc_lock.o)
                                0x49f (size before relaxing)
 .debug_str     0x00002331       0x30 ../final_sf_bsp//libhal_bsp.a(alt_open.o)
                                0x1fc (size before relaxing)
 .debug_str     0x00002361       0x13 ../final_sf_bsp//libhal_bsp.a(alt_read.o)
                                0x2a8 (size before relaxing)
 .debug_str     0x00002374       0x28 ../final_sf_bsp//libhal_bsp.a(alt_release_fd.o)
                                0x190 (size before relaxing)
 .debug_str     0x0000239c       0x98 ../final_sf_bsp//libhal_bsp.a(alt_sbrk.o)
                                0x185 (size before relaxing)
 .debug_str     0x00002434       0x27 ../final_sf_bsp//libhal_bsp.a(alt_usleep.o)
                                 0xf9 (size before relaxing)
 .debug_str     0x0000245b       0x14 ../final_sf_bsp//libhal_bsp.a(alt_write.o)
                                0x2a9 (size before relaxing)
 .debug_str     0x0000246f      0x1c2 ../final_sf_bsp//libhal_bsp.a(alt_sys_init.o)
                                0x353 (size before relaxing)
 .debug_str     0x00002631       0x6a ../final_sf_bsp//libhal_bsp.a(altera_avalon_jtag_uart_fd.o)
                                0x286 (size before relaxing)
 .debug_str     0x0000269b       0x48 ../final_sf_bsp//libhal_bsp.a(altera_avalon_jtag_uart_read.o)
                                0x1d0 (size before relaxing)
 .debug_str     0x000026e3       0x4a ../final_sf_bsp//libhal_bsp.a(altera_avalon_jtag_uart_write.o)
                                0x1c6 (size before relaxing)
 .debug_str     0x0000272d       0x7f ../final_sf_bsp//libhal_bsp.a(altera_avalon_timer_sc.o)
                                0x1fc (size before relaxing)
 .debug_str     0x000027ac       0x5b ../final_sf_bsp//libhal_bsp.a(altera_avalon_uart_fd.o)
                                0x249 (size before relaxing)
 .debug_str     0x00002807       0x3e ../final_sf_bsp//libhal_bsp.a(altera_avalon_uart_read.o)
                                0x1b2 (size before relaxing)
 .debug_str     0x00002845       0x40 ../final_sf_bsp//libhal_bsp.a(altera_avalon_uart_write.o)
                                0x1ba (size before relaxing)
 .debug_str     0x00002885      0x12e ../final_sf_bsp//libhal_bsp.a(altera_hostfs.o)
                                0x3eb (size before relaxing)
 .debug_str     0x000029b3       0x42 ../final_sf_bsp//libhal_bsp.a(alt_busy_sleep.o)
                                0x11c (size before relaxing)
 .debug_str     0x000029f5       0x34 ../final_sf_bsp//libhal_bsp.a(alt_dcache_flush_all.o)
                                0x106 (size before relaxing)
 .debug_str     0x00002a29       0x4b ../final_sf_bsp//libhal_bsp.a(alt_dev_llist_insert.o)
                                0x17d (size before relaxing)
 .debug_str     0x00002a74       0x24 ../final_sf_bsp//libhal_bsp.a(alt_find_dev.o)
                                0x19d (size before relaxing)
 .debug_str     0x00002a98       0x26 ../final_sf_bsp//libhal_bsp.a(alt_find_file.o)
                                0x1ab (size before relaxing)
 .debug_str     0x00002abe       0x20 ../final_sf_bsp//libhal_bsp.a(alt_fs_reg.o)
                                0x1ba (size before relaxing)
 .debug_str     0x00002ade       0x30 ../final_sf_bsp//libhal_bsp.a(alt_get_fd.o)
                                0x1cd (size before relaxing)
 .debug_str     0x00002b0e       0x34 ../final_sf_bsp//libhal_bsp.a(alt_icache_flush_all.o)
                                0x106 (size before relaxing)
 .debug_str     0x00002b42       0xbd ../final_sf_bsp//libhal_bsp.a(alt_iic.o)
                                0x1ef (size before relaxing)
 .debug_str     0x00002bff       0x4c ../final_sf_bsp//libhal_bsp.a(alt_iic_isr_register.o)
                                0x199 (size before relaxing)
 .debug_str     0x00002c4b       0x56 ../final_sf_bsp//libhal_bsp.a(alt_io_redirect.o)
                                0x2c7 (size before relaxing)
 .debug_str     0x00002ca1       0x3a ../final_sf_bsp//libhal_bsp.a(alt_irq_handler.o)
                                0x148 (size before relaxing)
 .debug_str     0x00002cdb       0x17 ../final_sf_bsp//libhal_bsp.a(alt_irq_vars.o)
                                 0xf7 (size before relaxing)
 .debug_str     0x00002cf2       0x78 ../final_sf_bsp//libhal_bsp.a(alt_tick.o)
                                0x203 (size before relaxing)
 .debug_str     0x00002d6a       0x3b ../final_sf_bsp//libhal_bsp.a(altera_nios2_qsys_irq.o)
                                0x10d (size before relaxing)
 .debug_str     0x00002da5       0x2c ../final_sf_bsp//libhal_bsp.a(alt_icache_flush.o)
                                0x10c (size before relaxing)
 .debug_str     0x00002dd1       0x4d /home/pcmonkey/altera/13.1/nios2eds/bin/gnu/H-i686-pc-linux-gnu/bin/../lib/gcc/nios2-elf/4.7.3/../../../../../H-i686-pc-linux-gnu/nios2-elf/lib/mno-hw-mul/libc.a(lib_a-exit.o)
                                0x53e (size before relaxing)
 .debug_str     0x00002e1e       0x45 /home/pcmonkey/altera/13.1/nios2eds/bin/gnu/H-i686-pc-linux-gnu/bin/../lib/gcc/nios2-elf/4.7.3/../../../../../H-i686-pc-linux-gnu/nios2-elf/lib/mno-hw-mul/libc.a(lib_a-memcmp.o)
                                0x185 (size before relaxing)
 .debug_str     0x00002e63       0x5f /home/pcmonkey/altera/13.1/nios2eds/bin/gnu/H-i686-pc-linux-gnu/bin/../lib/gcc/nios2-elf/4.7.3/../../../../../H-i686-pc-linux-gnu/nios2-elf/lib/mno-hw-mul/libc.a(lib_a-__call_atexit.o)
                                0x560 (size before relaxing)
 .debug_str     0x00002ec2       0x2a ../final_sf_bsp//libhal_bsp.a(alt_exit.o)
                                0x102 (size before relaxing)

.debug_loc      0x00000000    0x116fc
 *(.debug_loc)
 .debug_loc     0x00000000      0x2c0 obj/default/umain.o
 .debug_loc     0x000002c0       0x93 /home/pcmonkey/altera/13.1/nios2eds/bin/gnu/H-i686-pc-linux-gnu/bin/../lib/gcc/nios2-elf/4.7.3/mno-hw-mul/libgcc.a(lib2-mul.o)
 .debug_loc     0x00000353      0x136 /home/pcmonkey/altera/13.1/nios2eds/bin/gnu/H-i686-pc-linux-gnu/bin/../lib/gcc/nios2-elf/4.7.3/../../../../../H-i686-pc-linux-gnu/nios2-elf/lib/mno-hw-mul/libc.a(lib_a-fclose.o)
 .debug_loc     0x00000489      0x259 /home/pcmonkey/altera/13.1/nios2eds/bin/gnu/H-i686-pc-linux-gnu/bin/../lib/gcc/nios2-elf/4.7.3/../../../../../H-i686-pc-linux-gnu/nios2-elf/lib/mno-hw-mul/libc.a(lib_a-fflush.o)
 .debug_loc     0x000006e2      0x2a7 /home/pcmonkey/altera/13.1/nios2eds/bin/gnu/H-i686-pc-linux-gnu/bin/../lib/gcc/nios2-elf/4.7.3/../../../../../H-i686-pc-linux-gnu/nios2-elf/lib/mno-hw-mul/libc.a(lib_a-findfp.o)
 .debug_loc     0x00000989      0x1fc /home/pcmonkey/altera/13.1/nios2eds/bin/gnu/H-i686-pc-linux-gnu/bin/../lib/gcc/nios2-elf/4.7.3/../../../../../H-i686-pc-linux-gnu/nios2-elf/lib/mno-hw-mul/libc.a(lib_a-fopen.o)
 .debug_loc     0x00000b85      0x155 /home/pcmonkey/altera/13.1/nios2eds/bin/gnu/H-i686-pc-linux-gnu/bin/../lib/gcc/nios2-elf/4.7.3/../../../../../H-i686-pc-linux-gnu/nios2-elf/lib/mno-hw-mul/libc.a(lib_a-fprintf.o)
 .debug_loc     0x00000cda      0x668 /home/pcmonkey/altera/13.1/nios2eds/bin/gnu/H-i686-pc-linux-gnu/bin/../lib/gcc/nios2-elf/4.7.3/../../../../../H-i686-pc-linux-gnu/nios2-elf/lib/mno-hw-mul/libc.a(lib_a-freer.o)
 .debug_loc     0x00001342      0x3ac /home/pcmonkey/altera/13.1/nios2eds/bin/gnu/H-i686-pc-linux-gnu/bin/../lib/gcc/nios2-elf/4.7.3/../../../../../H-i686-pc-linux-gnu/nios2-elf/lib/mno-hw-mul/libc.a(lib_a-fseek.o)
 .debug_loc     0x000016ee       0xb2 /home/pcmonkey/altera/13.1/nios2eds/bin/gnu/H-i686-pc-linux-gnu/bin/../lib/gcc/nios2-elf/4.7.3/../../../../../H-i686-pc-linux-gnu/nios2-elf/lib/mno-hw-mul/libc.a(lib_a-fstatr.o)
 .debug_loc     0x000017a0      0x2ae /home/pcmonkey/altera/13.1/nios2eds/bin/gnu/H-i686-pc-linux-gnu/bin/../lib/gcc/nios2-elf/4.7.3/../../../../../H-i686-pc-linux-gnu/nios2-elf/lib/mno-hw-mul/libc.a(lib_a-fwalk.o)
 .debug_loc     0x00001a4e      0x16a /home/pcmonkey/altera/13.1/nios2eds/bin/gnu/H-i686-pc-linux-gnu/bin/../lib/gcc/nios2-elf/4.7.3/../../../../../H-i686-pc-linux-gnu/nios2-elf/lib/mno-hw-mul/libc.a(lib_a-makebuf.o)
 .debug_loc     0x00001bb8      0xb50 /home/pcmonkey/altera/13.1/nios2eds/bin/gnu/H-i686-pc-linux-gnu/bin/../lib/gcc/nios2-elf/4.7.3/../../../../../H-i686-pc-linux-gnu/nios2-elf/lib/mno-hw-mul/libc.a(lib_a-mallocr.o)
 .debug_loc     0x00002708      0x1b7 /home/pcmonkey/altera/13.1/nios2eds/bin/gnu/H-i686-pc-linux-gnu/bin/../lib/gcc/nios2-elf/4.7.3/../../../../../H-i686-pc-linux-gnu/nios2-elf/lib/mno-hw-mul/libc.a(lib_a-memset.o)
 .debug_loc     0x000028bf       0xde /home/pcmonkey/altera/13.1/nios2eds/bin/gnu/H-i686-pc-linux-gnu/bin/../lib/gcc/nios2-elf/4.7.3/../../../../../H-i686-pc-linux-gnu/nios2-elf/lib/mno-hw-mul/libc.a(lib_a-openr.o)
 .debug_loc     0x0000299d       0xd9 /home/pcmonkey/altera/13.1/nios2eds/bin/gnu/H-i686-pc-linux-gnu/bin/../lib/gcc/nios2-elf/4.7.3/../../../../../H-i686-pc-linux-gnu/nios2-elf/lib/mno-hw-mul/libc.a(lib_a-puts.o)
 .debug_loc     0x00002a76      0x15b /home/pcmonkey/altera/13.1/nios2eds/bin/gnu/H-i686-pc-linux-gnu/bin/../lib/gcc/nios2-elf/4.7.3/../../../../../H-i686-pc-linux-gnu/nios2-elf/lib/mno-hw-mul/libc.a(lib_a-refill.o)
 .debug_loc     0x00002bd1       0x86 /home/pcmonkey/altera/13.1/nios2eds/bin/gnu/H-i686-pc-linux-gnu/bin/../lib/gcc/nios2-elf/4.7.3/../../../../../H-i686-pc-linux-gnu/nios2-elf/lib/mno-hw-mul/libc.a(lib_a-sbrkr.o)
 .debug_loc     0x00002c57      0x379 /home/pcmonkey/altera/13.1/nios2eds/bin/gnu/H-i686-pc-linux-gnu/bin/../lib/gcc/nios2-elf/4.7.3/../../../../../H-i686-pc-linux-gnu/nios2-elf/lib/mno-hw-mul/libc.a(lib_a-stdio.o)
 .debug_loc     0x00002fd0       0x52 /home/pcmonkey/altera/13.1/nios2eds/bin/gnu/H-i686-pc-linux-gnu/bin/../lib/gcc/nios2-elf/4.7.3/../../../../../H-i686-pc-linux-gnu/nios2-elf/lib/mno-hw-mul/libc.a(lib_a-strlen.o)
 .debug_loc     0x00003022     0x2f0e /home/pcmonkey/altera/13.1/nios2eds/bin/gnu/H-i686-pc-linux-gnu/bin/../lib/gcc/nios2-elf/4.7.3/../../../../../H-i686-pc-linux-gnu/nios2-elf/lib/mno-hw-mul/libc.a(lib_a-vfprintf.o)
 .debug_loc     0x00005f30       0xde /home/pcmonkey/altera/13.1/nios2eds/bin/gnu/H-i686-pc-linux-gnu/bin/../lib/gcc/nios2-elf/4.7.3/../../../../../H-i686-pc-linux-gnu/nios2-elf/lib/mno-hw-mul/libc.a(lib_a-writer.o)
 .debug_loc     0x0000600e       0xba /home/pcmonkey/altera/13.1/nios2eds/bin/gnu/H-i686-pc-linux-gnu/bin/../lib/gcc/nios2-elf/4.7.3/../../../../../H-i686-pc-linux-gnu/nios2-elf/lib/mno-hw-mul/libc.a(lib_a-wsetup.o)
 .debug_loc     0x000060c8       0x86 /home/pcmonkey/altera/13.1/nios2eds/bin/gnu/H-i686-pc-linux-gnu/bin/../lib/gcc/nios2-elf/4.7.3/../../../../../H-i686-pc-linux-gnu/nios2-elf/lib/mno-hw-mul/libc.a(lib_a-closer.o)
 .debug_loc     0x0000614e     0x225e /home/pcmonkey/altera/13.1/nios2eds/bin/gnu/H-i686-pc-linux-gnu/bin/../lib/gcc/nios2-elf/4.7.3/../../../../../H-i686-pc-linux-gnu/nios2-elf/lib/mno-hw-mul/libc.a(lib_a-dtoa.o)
 .debug_loc     0x000083ac       0xe0 /home/pcmonkey/altera/13.1/nios2eds/bin/gnu/H-i686-pc-linux-gnu/bin/../lib/gcc/nios2-elf/4.7.3/../../../../../H-i686-pc-linux-gnu/nios2-elf/lib/mno-hw-mul/libc.a(lib_a-flags.o)
 .debug_loc     0x0000848c      0x50c /home/pcmonkey/altera/13.1/nios2eds/bin/gnu/H-i686-pc-linux-gnu/bin/../lib/gcc/nios2-elf/4.7.3/../../../../../H-i686-pc-linux-gnu/nios2-elf/lib/mno-hw-mul/libc.a(lib_a-fvwrite.o)
 .debug_loc     0x00008998       0x86 /home/pcmonkey/altera/13.1/nios2eds/bin/gnu/H-i686-pc-linux-gnu/bin/../lib/gcc/nios2-elf/4.7.3/../../../../../H-i686-pc-linux-gnu/nios2-elf/lib/mno-hw-mul/libc.a(lib_a-isattyr.o)
 .debug_loc     0x00008a1e      0x13e /home/pcmonkey/altera/13.1/nios2eds/bin/gnu/H-i686-pc-linux-gnu/bin/../lib/gcc/nios2-elf/4.7.3/../../../../../H-i686-pc-linux-gnu/nios2-elf/lib/mno-hw-mul/libc.a(lib_a-locale.o)
 .debug_loc     0x00008b5c       0xde /home/pcmonkey/altera/13.1/nios2eds/bin/gnu/H-i686-pc-linux-gnu/bin/../lib/gcc/nios2-elf/4.7.3/../../../../../H-i686-pc-linux-gnu/nios2-elf/lib/mno-hw-mul/libc.a(lib_a-lseekr.o)
 .debug_loc     0x00008c3a      0x239 /home/pcmonkey/altera/13.1/nios2eds/bin/gnu/H-i686-pc-linux-gnu/bin/../lib/gcc/nios2-elf/4.7.3/../../../../../H-i686-pc-linux-gnu/nios2-elf/lib/mno-hw-mul/libc.a(lib_a-memchr.o)
 .debug_loc     0x00008e73      0x29c /home/pcmonkey/altera/13.1/nios2eds/bin/gnu/H-i686-pc-linux-gnu/bin/../lib/gcc/nios2-elf/4.7.3/../../../../../H-i686-pc-linux-gnu/nios2-elf/lib/mno-hw-mul/libc.a(lib_a-memcpy.o)
 .debug_loc     0x0000910f      0x301 /home/pcmonkey/altera/13.1/nios2eds/bin/gnu/H-i686-pc-linux-gnu/bin/../lib/gcc/nios2-elf/4.7.3/../../../../../H-i686-pc-linux-gnu/nios2-elf/lib/mno-hw-mul/libc.a(lib_a-memmove.o)
 .debug_loc     0x00009410     0x1b8a /home/pcmonkey/altera/13.1/nios2eds/bin/gnu/H-i686-pc-linux-gnu/bin/../lib/gcc/nios2-elf/4.7.3/../../../../../H-i686-pc-linux-gnu/nios2-elf/lib/mno-hw-mul/libc.a(lib_a-mprec.o)
 .debug_loc     0x0000af9a       0xde /home/pcmonkey/altera/13.1/nios2eds/bin/gnu/H-i686-pc-linux-gnu/bin/../lib/gcc/nios2-elf/4.7.3/../../../../../H-i686-pc-linux-gnu/nios2-elf/lib/mno-hw-mul/libc.a(lib_a-readr.o)
 .debug_loc     0x0000b078     0x1136 /home/pcmonkey/altera/13.1/nios2eds/bin/gnu/H-i686-pc-linux-gnu/bin/../lib/gcc/nios2-elf/4.7.3/../../../../../H-i686-pc-linux-gnu/nios2-elf/lib/mno-hw-mul/libc.a(lib_a-reallocr.o)
 .debug_loc     0x0000c1ae       0x88 /home/pcmonkey/altera/13.1/nios2eds/bin/gnu/H-i686-pc-linux-gnu/bin/../lib/gcc/nios2-elf/4.7.3/../../../../../H-i686-pc-linux-gnu/nios2-elf/lib/mno-hw-mul/libc.a(lib_a-s_isinfd.o)
 .debug_loc     0x0000c236       0xa5 /home/pcmonkey/altera/13.1/nios2eds/bin/gnu/H-i686-pc-linux-gnu/bin/../lib/gcc/nios2-elf/4.7.3/../../../../../H-i686-pc-linux-gnu/nios2-elf/lib/mno-hw-mul/libc.a(lib_a-s_isnand.o)
 .debug_loc     0x0000c2db       0xb0 /home/pcmonkey/altera/13.1/nios2eds/bin/gnu/H-i686-pc-linux-gnu/bin/../lib/gcc/nios2-elf/4.7.3/../../../../../H-i686-pc-linux-gnu/nios2-elf/lib/mno-hw-mul/libc.a(lib_a-strcmp.o)
 .debug_loc     0x0000c38b      0x259 /home/pcmonkey/altera/13.1/nios2eds/bin/gnu/H-i686-pc-linux-gnu/bin/../lib/gcc/nios2-elf/4.7.3/../../../../../H-i686-pc-linux-gnu/nios2-elf/lib/mno-hw-mul/libc.a(lib_a-callocr.o)
 .debug_loc     0x0000c5e4     0x1202 /home/pcmonkey/altera/13.1/nios2eds/bin/gnu/H-i686-pc-linux-gnu/bin/../lib/gcc/nios2-elf/4.7.3/mno-hw-mul/libgcc.a(_udivdi3.o)
 .debug_loc     0x0000d7e6     0x10d6 /home/pcmonkey/altera/13.1/nios2eds/bin/gnu/H-i686-pc-linux-gnu/bin/../lib/gcc/nios2-elf/4.7.3/mno-hw-mul/libgcc.a(_umoddi3.o)
 .debug_loc     0x0000e8bc      0x7a1 /home/pcmonkey/altera/13.1/nios2eds/bin/gnu/H-i686-pc-linux-gnu/bin/../lib/gcc/nios2-elf/4.7.3/mno-hw-mul/libgcc.a(_addsub_df.o)
 .debug_loc     0x0000f05d      0x3ba /home/pcmonkey/altera/13.1/nios2eds/bin/gnu/H-i686-pc-linux-gnu/bin/../lib/gcc/nios2-elf/4.7.3/mno-hw-mul/libgcc.a(_mul_df.o)
 .debug_loc     0x0000f417      0x25e /home/pcmonkey/altera/13.1/nios2eds/bin/gnu/H-i686-pc-linux-gnu/bin/../lib/gcc/nios2-elf/4.7.3/mno-hw-mul/libgcc.a(_div_df.o)
 .debug_loc     0x0000f675       0x70 /home/pcmonkey/altera/13.1/nios2eds/bin/gnu/H-i686-pc-linux-gnu/bin/../lib/gcc/nios2-elf/4.7.3/mno-hw-mul/libgcc.a(_eq_df.o)
 .debug_loc     0x0000f6e5       0x70 /home/pcmonkey/altera/13.1/nios2eds/bin/gnu/H-i686-pc-linux-gnu/bin/../lib/gcc/nios2-elf/4.7.3/mno-hw-mul/libgcc.a(_ne_df.o)
 .debug_loc     0x0000f755       0x70 /home/pcmonkey/altera/13.1/nios2eds/bin/gnu/H-i686-pc-linux-gnu/bin/../lib/gcc/nios2-elf/4.7.3/mno-hw-mul/libgcc.a(_gt_df.o)
 .debug_loc     0x0000f7c5       0x70 /home/pcmonkey/altera/13.1/nios2eds/bin/gnu/H-i686-pc-linux-gnu/bin/../lib/gcc/nios2-elf/4.7.3/mno-hw-mul/libgcc.a(_ge_df.o)
 .debug_loc     0x0000f835       0x70 /home/pcmonkey/altera/13.1/nios2eds/bin/gnu/H-i686-pc-linux-gnu/bin/../lib/gcc/nios2-elf/4.7.3/mno-hw-mul/libgcc.a(_lt_df.o)
 .debug_loc     0x0000f8a5       0xd3 /home/pcmonkey/altera/13.1/nios2eds/bin/gnu/H-i686-pc-linux-gnu/bin/../lib/gcc/nios2-elf/4.7.3/mno-hw-mul/libgcc.a(_si_to_df.o)
 .debug_loc     0x0000f978       0xce /home/pcmonkey/altera/13.1/nios2eds/bin/gnu/H-i686-pc-linux-gnu/bin/../lib/gcc/nios2-elf/4.7.3/mno-hw-mul/libgcc.a(_df_to_si.o)
 .debug_loc     0x0000fa46      0x168 /home/pcmonkey/altera/13.1/nios2eds/bin/gnu/H-i686-pc-linux-gnu/bin/../lib/gcc/nios2-elf/4.7.3/mno-hw-mul/libgcc.a(_usi_to_df.o)
 .debug_loc     0x0000fbae      0x338 /home/pcmonkey/altera/13.1/nios2eds/bin/gnu/H-i686-pc-linux-gnu/bin/../lib/gcc/nios2-elf/4.7.3/mno-hw-mul/libgcc.a(lib2-divmod.o)
 .debug_loc     0x0000fee6      0x1a8 /home/pcmonkey/altera/13.1/nios2eds/bin/gnu/H-i686-pc-linux-gnu/bin/../lib/gcc/nios2-elf/4.7.3/mno-hw-mul/libgcc.a(_muldi3.o)
 .debug_loc     0x0001008e      0x19a /home/pcmonkey/altera/13.1/nios2eds/bin/gnu/H-i686-pc-linux-gnu/bin/../lib/gcc/nios2-elf/4.7.3/mno-hw-mul/libgcc.a(_clzsi2.o)
 .debug_loc     0x00010228      0x2ae /home/pcmonkey/altera/13.1/nios2eds/bin/gnu/H-i686-pc-linux-gnu/bin/../lib/gcc/nios2-elf/4.7.3/mno-hw-mul/libgcc.a(_pack_df.o)
 .debug_loc     0x000104d6      0x179 /home/pcmonkey/altera/13.1/nios2eds/bin/gnu/H-i686-pc-linux-gnu/bin/../lib/gcc/nios2-elf/4.7.3/mno-hw-mul/libgcc.a(_unpack_df.o)
 .debug_loc     0x0001064f       0x7c /home/pcmonkey/altera/13.1/nios2eds/bin/gnu/H-i686-pc-linux-gnu/bin/../lib/gcc/nios2-elf/4.7.3/mno-hw-mul/libgcc.a(_fpcmp_parts_df.o)
 .debug_loc     0x000106cb       0xc4 /home/pcmonkey/altera/13.1/nios2eds/bin/gnu/H-i686-pc-linux-gnu/bin/../lib/gcc/nios2-elf/4.7.3/mno-hw-mul/libgcc.a(_lshrdi3.o)
 .debug_loc     0x0001078f       0xc4 /home/pcmonkey/altera/13.1/nios2eds/bin/gnu/H-i686-pc-linux-gnu/bin/../lib/gcc/nios2-elf/4.7.3/mno-hw-mul/libgcc.a(_ashldi3.o)
 .debug_loc     0x00010853       0x58 ../final_sf_bsp//libhal_bsp.a(alt_close.o)
 .debug_loc     0x000108ab       0x2c ../final_sf_bsp//libhal_bsp.a(alt_dev.o)
 .debug_loc     0x000108d7       0x58 ../final_sf_bsp//libhal_bsp.a(alt_fstat.o)
 .debug_loc     0x0001092f       0x59 ../final_sf_bsp//libhal_bsp.a(alt_isatty.o)
 .debug_loc     0x00010988       0x58 ../final_sf_bsp//libhal_bsp.a(alt_load.o)
 .debug_loc     0x000109e0       0x58 ../final_sf_bsp//libhal_bsp.a(alt_lseek.o)
 .debug_loc     0x00010a38       0x2c ../final_sf_bsp//libhal_bsp.a(alt_main.o)
 .debug_loc     0x00010a64       0x58 ../final_sf_bsp//libhal_bsp.a(alt_malloc_lock.o)
 .debug_loc     0x00010abc       0x84 ../final_sf_bsp//libhal_bsp.a(alt_open.o)
 .debug_loc     0x00010b40       0x58 ../final_sf_bsp//libhal_bsp.a(alt_read.o)
 .debug_loc     0x00010b98       0x2c ../final_sf_bsp//libhal_bsp.a(alt_release_fd.o)
 .debug_loc     0x00010bc4       0x2c ../final_sf_bsp//libhal_bsp.a(alt_sbrk.o)
 .debug_loc     0x00010bf0       0x2c ../final_sf_bsp//libhal_bsp.a(alt_usleep.o)
 .debug_loc     0x00010c1c       0x58 ../final_sf_bsp//libhal_bsp.a(alt_write.o)
 .debug_loc     0x00010c74       0x84 ../final_sf_bsp//libhal_bsp.a(alt_sys_init.o)
 .debug_loc     0x00010cf8       0x58 ../final_sf_bsp//libhal_bsp.a(altera_avalon_jtag_uart_fd.o)
 .debug_loc     0x00010d50       0x2c ../final_sf_bsp//libhal_bsp.a(altera_avalon_jtag_uart_read.o)
 .debug_loc     0x00010d7c       0x2c ../final_sf_bsp//libhal_bsp.a(altera_avalon_jtag_uart_write.o)
 .debug_loc     0x00010da8       0x58 ../final_sf_bsp//libhal_bsp.a(altera_avalon_timer_sc.o)
 .debug_loc     0x00010e00       0x58 ../final_sf_bsp//libhal_bsp.a(altera_avalon_uart_fd.o)
 .debug_loc     0x00010e58       0x58 ../final_sf_bsp//libhal_bsp.a(altera_avalon_uart_read.o)
 .debug_loc     0x00010eb0       0x58 ../final_sf_bsp//libhal_bsp.a(altera_avalon_uart_write.o)
 .debug_loc     0x00010f08      0x10a ../final_sf_bsp//libhal_bsp.a(altera_hostfs.o)
 .debug_loc     0x00011012       0x2c ../final_sf_bsp//libhal_bsp.a(alt_busy_sleep.o)
 .debug_loc     0x0001103e       0x2c ../final_sf_bsp//libhal_bsp.a(alt_dcache_flush_all.o)
 .debug_loc     0x0001106a       0x58 ../final_sf_bsp//libhal_bsp.a(alt_dev_llist_insert.o)
 .debug_loc     0x000110c2       0x2c ../final_sf_bsp//libhal_bsp.a(alt_find_dev.o)
 .debug_loc     0x000110ee       0x2c ../final_sf_bsp//libhal_bsp.a(alt_find_file.o)
 .debug_loc     0x0001111a       0x2c ../final_sf_bsp//libhal_bsp.a(alt_fs_reg.o)
 .debug_loc     0x00011146       0x2c ../final_sf_bsp//libhal_bsp.a(alt_get_fd.o)
 .debug_loc     0x00011172       0x2c ../final_sf_bsp//libhal_bsp.a(alt_icache_flush_all.o)
 .debug_loc     0x0001119e       0xb0 ../final_sf_bsp//libhal_bsp.a(alt_iic.o)
 .debug_loc     0x0001124e       0x2c ../final_sf_bsp//libhal_bsp.a(alt_iic_isr_register.o)
 .debug_loc     0x0001127a       0x58 ../final_sf_bsp//libhal_bsp.a(alt_io_redirect.o)
 .debug_loc     0x000112d2       0x2c ../final_sf_bsp//libhal_bsp.a(alt_irq_handler.o)
 .debug_loc     0x000112fe       0x58 ../final_sf_bsp//libhal_bsp.a(alt_tick.o)
 .debug_loc     0x00011356       0x2c ../final_sf_bsp//libhal_bsp.a(altera_nios2_qsys_irq.o)
 .debug_loc     0x00011382       0x2c ../final_sf_bsp//libhal_bsp.a(alt_icache_flush.o)
 .debug_loc     0x000113ae       0x3e /home/pcmonkey/altera/13.1/nios2eds/bin/gnu/H-i686-pc-linux-gnu/bin/../lib/gcc/nios2-elf/4.7.3/../../../../../H-i686-pc-linux-gnu/nios2-elf/lib/mno-hw-mul/libc.a(lib_a-exit.o)
 .debug_loc     0x000113ec      0x103 /home/pcmonkey/altera/13.1/nios2eds/bin/gnu/H-i686-pc-linux-gnu/bin/../lib/gcc/nios2-elf/4.7.3/../../../../../H-i686-pc-linux-gnu/nios2-elf/lib/mno-hw-mul/libc.a(lib_a-memcmp.o)
 .debug_loc     0x000114ef      0x1e1 /home/pcmonkey/altera/13.1/nios2eds/bin/gnu/H-i686-pc-linux-gnu/bin/../lib/gcc/nios2-elf/4.7.3/../../../../../H-i686-pc-linux-gnu/nios2-elf/lib/mno-hw-mul/libc.a(lib_a-__call_atexit.o)
 .debug_loc     0x000116d0       0x2c ../final_sf_bsp//libhal_bsp.a(alt_exit.o)

.debug_macinfo
 *(.debug_macinfo)

.debug_weaknames
 *(.debug_weaknames)

.debug_funcnames
 *(.debug_funcnames)

.debug_typenames
 *(.debug_typenames)

.debug_varnames
 *(.debug_varnames)

.debug_alt_sim_info
                0x00000000       0x60
 *(.debug_alt_sim_info)
 .debug_alt_sim_info
                0x00000000       0x30 ../final_sf_bsp//obj/HAL/src/crt0.o
 .debug_alt_sim_info
                0x00000030       0x30 ../final_sf_bsp//libhal_bsp.a(alt_busy_sleep.o)
                0x00033880                __alt_data_end = 0x33880
                0x00033880                PROVIDE (__alt_stack_pointer, __alt_data_end)
                0x0002ff1c                PROVIDE (__alt_stack_limit, __alt_stack_base)
                0x0002ff1c                PROVIDE (__alt_heap_start, end)
                0x00033880                PROVIDE (__alt_heap_limit, 0x33880)
OUTPUT(final_sf.elf elf32-littlenios2)

.debug_ranges   0x00000000      0xa68
 .debug_ranges  0x00000000       0x20 ../final_sf_bsp//obj/HAL/src/crt0.o
 .debug_ranges  0x00000020       0x20 /home/pcmonkey/altera/13.1/nios2eds/bin/gnu/H-i686-pc-linux-gnu/bin/../lib/gcc/nios2-elf/4.7.3/../../../../../H-i686-pc-linux-gnu/nios2-elf/lib/mno-hw-mul/libc.a(lib_a-fflush.o)
 .debug_ranges  0x00000040       0x80 /home/pcmonkey/altera/13.1/nios2eds/bin/gnu/H-i686-pc-linux-gnu/bin/../lib/gcc/nios2-elf/4.7.3/../../../../../H-i686-pc-linux-gnu/nios2-elf/lib/mno-hw-mul/libc.a(lib_a-fwalk.o)
 .debug_ranges  0x000000c0       0x70 /home/pcmonkey/altera/13.1/nios2eds/bin/gnu/H-i686-pc-linux-gnu/bin/../lib/gcc/nios2-elf/4.7.3/../../../../../H-i686-pc-linux-gnu/nios2-elf/lib/mno-hw-mul/libc.a(lib_a-mallocr.o)
 .debug_ranges  0x00000130      0x150 /home/pcmonkey/altera/13.1/nios2eds/bin/gnu/H-i686-pc-linux-gnu/bin/../lib/gcc/nios2-elf/4.7.3/../../../../../H-i686-pc-linux-gnu/nios2-elf/lib/mno-hw-mul/libc.a(lib_a-vfprintf.o)
 .debug_ranges  0x00000280       0x18 /home/pcmonkey/altera/13.1/nios2eds/bin/gnu/H-i686-pc-linux-gnu/bin/../lib/gcc/nios2-elf/4.7.3/../../../../../H-i686-pc-linux-gnu/nios2-elf/lib/mno-hw-mul/libc.a(lib_a-fvwrite.o)
 .debug_ranges  0x00000298       0x40 /home/pcmonkey/altera/13.1/nios2eds/bin/gnu/H-i686-pc-linux-gnu/bin/../lib/gcc/nios2-elf/4.7.3/../../../../../H-i686-pc-linux-gnu/nios2-elf/lib/mno-hw-mul/libc.a(lib_a-mprec.o)
 .debug_ranges  0x000002d8      0x158 /home/pcmonkey/altera/13.1/nios2eds/bin/gnu/H-i686-pc-linux-gnu/bin/../lib/gcc/nios2-elf/4.7.3/../../../../../H-i686-pc-linux-gnu/nios2-elf/lib/mno-hw-mul/libc.a(lib_a-reallocr.o)
 .debug_ranges  0x00000430       0x48 /home/pcmonkey/altera/13.1/nios2eds/bin/gnu/H-i686-pc-linux-gnu/bin/../lib/gcc/nios2-elf/4.7.3/../../../../../H-i686-pc-linux-gnu/nios2-elf/lib/mno-hw-mul/libc.a(lib_a-callocr.o)
 .debug_ranges  0x00000478      0x1a0 /home/pcmonkey/altera/13.1/nios2eds/bin/gnu/H-i686-pc-linux-gnu/bin/../lib/gcc/nios2-elf/4.7.3/mno-hw-mul/libgcc.a(_udivdi3.o)
 .debug_ranges  0x00000618      0x160 /home/pcmonkey/altera/13.1/nios2eds/bin/gnu/H-i686-pc-linux-gnu/bin/../lib/gcc/nios2-elf/4.7.3/mno-hw-mul/libgcc.a(_umoddi3.o)
 .debug_ranges  0x00000778       0x38 /home/pcmonkey/altera/13.1/nios2eds/bin/gnu/H-i686-pc-linux-gnu/bin/../lib/gcc/nios2-elf/4.7.3/mno-hw-mul/libgcc.a(_addsub_df.o)
 .debug_ranges  0x000007b0       0x78 /home/pcmonkey/altera/13.1/nios2eds/bin/gnu/H-i686-pc-linux-gnu/bin/../lib/gcc/nios2-elf/4.7.3/mno-hw-mul/libgcc.a(_mul_df.o)
 .debug_ranges  0x00000828       0x50 /home/pcmonkey/altera/13.1/nios2eds/bin/gnu/H-i686-pc-linux-gnu/bin/../lib/gcc/nios2-elf/4.7.3/mno-hw-mul/libgcc.a(_div_df.o)
 .debug_ranges  0x00000878       0x30 /home/pcmonkey/altera/13.1/nios2eds/bin/gnu/H-i686-pc-linux-gnu/bin/../lib/gcc/nios2-elf/4.7.3/mno-hw-mul/libgcc.a(_si_to_df.o)
 .debug_ranges  0x000008a8       0x48 /home/pcmonkey/altera/13.1/nios2eds/bin/gnu/H-i686-pc-linux-gnu/bin/../lib/gcc/nios2-elf/4.7.3/mno-hw-mul/libgcc.a(_usi_to_df.o)
 .debug_ranges  0x000008f0       0x70 /home/pcmonkey/altera/13.1/nios2eds/bin/gnu/H-i686-pc-linux-gnu/bin/../lib/gcc/nios2-elf/4.7.3/mno-hw-mul/libgcc.a(_muldi3.o)
 .debug_ranges  0x00000960       0x28 /home/pcmonkey/altera/13.1/nios2eds/bin/gnu/H-i686-pc-linux-gnu/bin/../lib/gcc/nios2-elf/4.7.3/mno-hw-mul/libgcc.a(_clzsi2.o)
 .debug_ranges  0x00000988       0x18 /home/pcmonkey/altera/13.1/nios2eds/bin/gnu/H-i686-pc-linux-gnu/bin/../lib/gcc/nios2-elf/4.7.3/mno-hw-mul/libgcc.a(_pack_df.o)
 .debug_ranges  0x000009a0       0x18 ../final_sf_bsp//libhal_bsp.a(altera_avalon_jtag_uart_read.o)
 .debug_ranges  0x000009b8       0x30 ../final_sf_bsp//libhal_bsp.a(alt_iic.o)
 .debug_ranges  0x000009e8       0x28 ../final_sf_bsp//libhal_bsp.a(alt_irq_entry.o)
 .debug_ranges  0x00000a10       0x10 ../final_sf_bsp//libhal_bsp.a(alt_irq_handler.o)
 .debug_ranges  0x00000a20       0x30 ../final_sf_bsp//libhal_bsp.a(alt_exception_entry.o)
 .debug_ranges  0x00000a50       0x18 /home/pcmonkey/altera/13.1/nios2eds/bin/gnu/H-i686-pc-linux-gnu/bin/../lib/gcc/nios2-elf/4.7.3/../../../../../H-i686-pc-linux-gnu/nios2-elf/lib/mno-hw-mul/libc.a(lib_a-__call_atexit.o)
